
build/elf/rv64mi-p-breakpoint：     文件格式 elf64-littleriscv


Disassembly of section .text.init:

0000000080000000 <_start>:
    80000000:	0540006f          	j	80000054 <reset_vector>

0000000080000004 <trap_vector>:
    80000004:	34202f73          	csrr	t5,mcause
    80000008:	00800f93          	li	t6,8
    8000000c:	03ff0a63          	beq	t5,t6,80000040 <write_tohost>
    80000010:	00900f93          	li	t6,9
    80000014:	03ff0663          	beq	t5,t6,80000040 <write_tohost>
    80000018:	00b00f93          	li	t6,11
    8000001c:	03ff0263          	beq	t5,t6,80000040 <write_tohost>
    80000020:	00000f17          	auipc	t5,0x0
    80000024:	29cf0f13          	addi	t5,t5,668 # 800002bc <mtvec_handler>
    80000028:	000f0463          	beqz	t5,80000030 <trap_vector+0x2c>
    8000002c:	000f0067          	jr	t5
    80000030:	34202f73          	csrr	t5,mcause
    80000034:	000f5463          	bgez	t5,8000003c <handle_exception>
    80000038:	0040006f          	j	8000003c <handle_exception>

000000008000003c <handle_exception>:
    8000003c:	5391e193          	ori	gp,gp,1337

0000000080000040 <write_tohost>:
    80000040:	00001f17          	auipc	t5,0x1
    80000044:	fc3f2023          	sw	gp,-64(t5) # 80001000 <tohost>
    80000048:	00001f17          	auipc	t5,0x1
    8000004c:	fa0f2e23          	sw	zero,-68(t5) # 80001004 <tohost+0x4>
    80000050:	ff1ff06f          	j	80000040 <write_tohost>

0000000080000054 <reset_vector>:
    80000054:	00000093          	li	ra,0
    80000058:	00000113          	li	sp,0
    8000005c:	00000193          	li	gp,0
    80000060:	00000213          	li	tp,0
    80000064:	00000293          	li	t0,0
    80000068:	00000313          	li	t1,0
    8000006c:	00000393          	li	t2,0
    80000070:	00000413          	li	s0,0
    80000074:	00000493          	li	s1,0
    80000078:	00000513          	li	a0,0
    8000007c:	00000593          	li	a1,0
    80000080:	00000613          	li	a2,0
    80000084:	00000693          	li	a3,0
    80000088:	00000713          	li	a4,0
    8000008c:	00000793          	li	a5,0
    80000090:	00000813          	li	a6,0
    80000094:	00000893          	li	a7,0
    80000098:	00000913          	li	s2,0
    8000009c:	00000993          	li	s3,0
    800000a0:	00000a13          	li	s4,0
    800000a4:	00000a93          	li	s5,0
    800000a8:	00000b13          	li	s6,0
    800000ac:	00000b93          	li	s7,0
    800000b0:	00000c13          	li	s8,0
    800000b4:	00000c93          	li	s9,0
    800000b8:	00000d13          	li	s10,0
    800000bc:	00000d93          	li	s11,0
    800000c0:	00000e13          	li	t3,0
    800000c4:	00000e93          	li	t4,0
    800000c8:	00000f13          	li	t5,0
    800000cc:	00000f93          	li	t6,0
    800000d0:	f1402573          	csrr	a0,mhartid
    800000d4:	00051063          	bnez	a0,800000d4 <reset_vector+0x80>
    800000d8:	00000297          	auipc	t0,0x0
    800000dc:	01028293          	addi	t0,t0,16 # 800000e8 <reset_vector+0x94>
    800000e0:	30529073          	csrw	mtvec,t0
    800000e4:	18005073          	csrwi	satp,0
    800000e8:	00000297          	auipc	t0,0x0
    800000ec:	02428293          	addi	t0,t0,36 # 8000010c <reset_vector+0xb8>
    800000f0:	30529073          	csrw	mtvec,t0
    800000f4:	0010029b          	addiw	t0,zero,1
    800000f8:	03529293          	slli	t0,t0,0x35
    800000fc:	fff28293          	addi	t0,t0,-1
    80000100:	3b029073          	csrw	pmpaddr0,t0
    80000104:	01f00293          	li	t0,31
    80000108:	3a029073          	csrw	pmpcfg0,t0
    8000010c:	30405073          	csrwi	mie,0
    80000110:	00000297          	auipc	t0,0x0
    80000114:	01428293          	addi	t0,t0,20 # 80000124 <reset_vector+0xd0>
    80000118:	30529073          	csrw	mtvec,t0
    8000011c:	30205073          	csrwi	medeleg,0
    80000120:	30305073          	csrwi	mideleg,0
    80000124:	00000193          	li	gp,0
    80000128:	00000297          	auipc	t0,0x0
    8000012c:	edc28293          	addi	t0,t0,-292 # 80000004 <trap_vector>
    80000130:	30529073          	csrw	mtvec,t0
    80000134:	00100513          	li	a0,1
    80000138:	01f51513          	slli	a0,a0,0x1f
    8000013c:	00055c63          	bgez	a0,80000154 <reset_vector+0x100>
    80000140:	0ff0000f          	fence
    80000144:	00100193          	li	gp,1
    80000148:	05d00893          	li	a7,93
    8000014c:	00000513          	li	a0,0
    80000150:	00000073          	ecall
    80000154:	00000293          	li	t0,0
    80000158:	00028a63          	beqz	t0,8000016c <reset_vector+0x118>
    8000015c:	10529073          	csrw	stvec,t0
    80000160:	0000b2b7          	lui	t0,0xb
    80000164:	1092829b          	addiw	t0,t0,265 # b109 <_start-0x7fff4ef7>
    80000168:	30229073          	csrw	medeleg,t0
    8000016c:	30005073          	csrwi	mstatus,0
    80000170:	00002537          	lui	a0,0x2
    80000174:	8005051b          	addiw	a0,a0,-2048 # 1800 <_start-0x7fffe800>
    80000178:	30052073          	csrs	mstatus,a0
    8000017c:	00000297          	auipc	t0,0x0
    80000180:	01428293          	addi	t0,t0,20 # 80000190 <reset_vector+0x13c>
    80000184:	34129073          	csrw	mepc,t0
    80000188:	f1402573          	csrr	a0,mhartid
    8000018c:	30200073          	mret
    80000190:	00200193          	li	gp,2
    80000194:	7a001073          	csrw	tselect,zero
    80000198:	7a0025f3          	csrr	a1,tselect
    8000019c:	10b01663          	bne	zero,a1,800002a8 <pass>
    800001a0:	00000617          	auipc	a2,0x0
    800001a4:	02460613          	addi	a2,a2,36 # 800001c4 <reset_vector+0x170>
    800001a8:	7a261073          	csrw	tdata2,a2
    800001ac:	0010051b          	addiw	a0,zero,1
    800001b0:	03d51513          	slli	a0,a0,0x3d
    800001b4:	04450513          	addi	a0,a0,68
    800001b8:	7a151073          	csrw	tdata1,a0
    800001bc:	7a1025f3          	csrr	a1,tdata1
    800001c0:	00b51863          	bne	a0,a1,800001d0 <reset_vector+0x17c>
    800001c4:	0c000463          	beqz	zero,8000028c <fail>
    800001c8:	00300193          	li	gp,3
    800001cc:	00062503          	lw	a0,0(a2)
    800001d0:	00400193          	li	gp,4
    800001d4:	0010051b          	addiw	a0,zero,1
    800001d8:	03d51513          	slli	a0,a0,0x3d
    800001dc:	04150513          	addi	a0,a0,65
    800001e0:	7a151073          	csrw	tdata1,a0
    800001e4:	7a1025f3          	csrr	a1,tdata1
    800001e8:	02b51063          	bne	a0,a1,80000208 <reset_vector+0x1b4>
    800001ec:	00002617          	auipc	a2,0x2
    800001f0:	e1460613          	addi	a2,a2,-492 # 80002000 <begin_signature>
    800001f4:	7a261073          	csrw	tdata2,a2
    800001f8:	00062603          	lw	a2,0(a2)
    800001fc:	08060863          	beqz	a2,8000028c <fail>
    80000200:	00500193          	li	gp,5
    80000204:	00062023          	sw	zero,0(a2)
    80000208:	00600193          	li	gp,6
    8000020c:	0010051b          	addiw	a0,zero,1
    80000210:	03d51513          	slli	a0,a0,0x3d
    80000214:	04250513          	addi	a0,a0,66
    80000218:	7a151073          	csrw	tdata1,a0
    8000021c:	7a1025f3          	csrr	a1,tdata1
    80000220:	06b51463          	bne	a0,a1,80000288 <reset_vector+0x234>
    80000224:	00c62023          	sw	a2,0(a2)
    80000228:	00700193          	li	gp,7
    8000022c:	00062603          	lw	a2,0(a2)
    80000230:	04061e63          	bnez	a2,8000028c <fail>
    80000234:	00100513          	li	a0,1
    80000238:	7a051073          	csrw	tselect,a0
    8000023c:	7a0025f3          	csrr	a1,tselect
    80000240:	06b51463          	bne	a0,a1,800002a8 <pass>
    80000244:	0010051b          	addiw	a0,zero,1
    80000248:	03d51513          	slli	a0,a0,0x3d
    8000024c:	04150513          	addi	a0,a0,65
    80000250:	7a151073          	csrw	tdata1,a0
    80000254:	00002697          	auipc	a3,0x2
    80000258:	db068693          	addi	a3,a3,-592 # 80002004 <data2>
    8000025c:	7a269073          	csrw	tdata2,a3
    80000260:	00800193          	li	gp,8
    80000264:	0006a683          	lw	a3,0(a3)
    80000268:	02068263          	beqz	a3,8000028c <fail>
    8000026c:	00a00193          	li	gp,10
    80000270:	00002617          	auipc	a2,0x2
    80000274:	d9060613          	addi	a2,a2,-624 # 80002000 <begin_signature>
    80000278:	00c62023          	sw	a2,0(a2)
    8000027c:	00b00193          	li	gp,11
    80000280:	00062603          	lw	a2,0(a2)
    80000284:	00061463          	bnez	a2,8000028c <fail>
    80000288:	02301063          	bne	zero,gp,800002a8 <pass>

000000008000028c <fail>:
    8000028c:	0ff0000f          	fence
    80000290:	00018063          	beqz	gp,80000290 <fail+0x4>
    80000294:	00119193          	slli	gp,gp,0x1
    80000298:	0011e193          	ori	gp,gp,1
    8000029c:	05d00893          	li	a7,93
    800002a0:	00018513          	mv	a0,gp
    800002a4:	00000073          	ecall

00000000800002a8 <pass>:
    800002a8:	0ff0000f          	fence
    800002ac:	00100193          	li	gp,1
    800002b0:	05d00893          	li	a7,93
    800002b4:	00000513          	li	a0,0
    800002b8:	00000073          	ecall

00000000800002bc <mtvec_handler>:
    800002bc:	0011f293          	andi	t0,gp,1
    800002c0:	fc0296e3          	bnez	t0,8000028c <fail>
    800002c4:	00300293          	li	t0,3
    800002c8:	34202373          	csrr	t1,mcause
    800002cc:	fc6290e3          	bne	t0,t1,8000028c <fail>
    800002d0:	341022f3          	csrr	t0,mepc
    800002d4:	00428293          	addi	t0,t0,4
    800002d8:	34129073          	csrw	mepc,t0
    800002dc:	30200073          	mret
    800002e0:	c0001073          	unimp
    800002e4:	0000                	.2byte	0x0
    800002e6:	0000                	.2byte	0x0
    800002e8:	0000                	.2byte	0x0
    800002ea:	0000                	.2byte	0x0
    800002ec:	0000                	.2byte	0x0
    800002ee:	0000                	.2byte	0x0
    800002f0:	0000                	.2byte	0x0
    800002f2:	0000                	.2byte	0x0
    800002f4:	0000                	.2byte	0x0
    800002f6:	0000                	.2byte	0x0
    800002f8:	0000                	.2byte	0x0
    800002fa:	0000                	.2byte	0x0
    800002fc:	0000                	.2byte	0x0
    800002fe:	0000                	.2byte	0x0
