
build/elf/rv64mi-p-ld-misaligned：     文件格式 elf64-littleriscv


Disassembly of section .text.init:

0000000080000000 <_start>:
    80000000:	0540006f          	j	80000054 <reset_vector>

0000000080000004 <trap_vector>:
    80000004:	34202f73          	csrr	t5,mcause
    80000008:	00800f93          	li	t6,8
    8000000c:	03ff0a63          	beq	t5,t6,80000040 <write_tohost>
    80000010:	00900f93          	li	t6,9
    80000014:	03ff0663          	beq	t5,t6,80000040 <write_tohost>
    80000018:	00b00f93          	li	t6,11
    8000001c:	03ff0263          	beq	t5,t6,80000040 <write_tohost>
    80000020:	00000f17          	auipc	t5,0x0
    80000024:	3f4f0f13          	addi	t5,t5,1012 # 80000414 <mtvec_handler>
    80000028:	000f0463          	beqz	t5,80000030 <trap_vector+0x2c>
    8000002c:	000f0067          	jr	t5
    80000030:	34202f73          	csrr	t5,mcause
    80000034:	000f5463          	bgez	t5,8000003c <handle_exception>
    80000038:	0040006f          	j	8000003c <handle_exception>

000000008000003c <handle_exception>:
    8000003c:	5391e193          	ori	gp,gp,1337

0000000080000040 <write_tohost>:
    80000040:	00001f17          	auipc	t5,0x1
    80000044:	fc3f2023          	sw	gp,-64(t5) # 80001000 <tohost>
    80000048:	00001f17          	auipc	t5,0x1
    8000004c:	fa0f2e23          	sw	zero,-68(t5) # 80001004 <tohost+0x4>
    80000050:	ff1ff06f          	j	80000040 <write_tohost>

0000000080000054 <reset_vector>:
    80000054:	00000093          	li	ra,0
    80000058:	00000113          	li	sp,0
    8000005c:	00000193          	li	gp,0
    80000060:	00000213          	li	tp,0
    80000064:	00000293          	li	t0,0
    80000068:	00000313          	li	t1,0
    8000006c:	00000393          	li	t2,0
    80000070:	00000413          	li	s0,0
    80000074:	00000493          	li	s1,0
    80000078:	00000513          	li	a0,0
    8000007c:	00000593          	li	a1,0
    80000080:	00000613          	li	a2,0
    80000084:	00000693          	li	a3,0
    80000088:	00000713          	li	a4,0
    8000008c:	00000793          	li	a5,0
    80000090:	00000813          	li	a6,0
    80000094:	00000893          	li	a7,0
    80000098:	00000913          	li	s2,0
    8000009c:	00000993          	li	s3,0
    800000a0:	00000a13          	li	s4,0
    800000a4:	00000a93          	li	s5,0
    800000a8:	00000b13          	li	s6,0
    800000ac:	00000b93          	li	s7,0
    800000b0:	00000c13          	li	s8,0
    800000b4:	00000c93          	li	s9,0
    800000b8:	00000d13          	li	s10,0
    800000bc:	00000d93          	li	s11,0
    800000c0:	00000e13          	li	t3,0
    800000c4:	00000e93          	li	t4,0
    800000c8:	00000f13          	li	t5,0
    800000cc:	00000f93          	li	t6,0
    800000d0:	f1402573          	csrr	a0,mhartid
    800000d4:	00051063          	bnez	a0,800000d4 <reset_vector+0x80>
    800000d8:	00000297          	auipc	t0,0x0
    800000dc:	01028293          	addi	t0,t0,16 # 800000e8 <reset_vector+0x94>
    800000e0:	30529073          	csrw	mtvec,t0
    800000e4:	18005073          	csrwi	satp,0
    800000e8:	00000297          	auipc	t0,0x0
    800000ec:	02428293          	addi	t0,t0,36 # 8000010c <reset_vector+0xb8>
    800000f0:	30529073          	csrw	mtvec,t0
    800000f4:	0010029b          	addiw	t0,zero,1
    800000f8:	03529293          	slli	t0,t0,0x35
    800000fc:	fff28293          	addi	t0,t0,-1
    80000100:	3b029073          	csrw	pmpaddr0,t0
    80000104:	01f00293          	li	t0,31
    80000108:	3a029073          	csrw	pmpcfg0,t0
    8000010c:	30405073          	csrwi	mie,0
    80000110:	00000297          	auipc	t0,0x0
    80000114:	01428293          	addi	t0,t0,20 # 80000124 <reset_vector+0xd0>
    80000118:	30529073          	csrw	mtvec,t0
    8000011c:	30205073          	csrwi	medeleg,0
    80000120:	30305073          	csrwi	mideleg,0
    80000124:	00000193          	li	gp,0
    80000128:	00000297          	auipc	t0,0x0
    8000012c:	edc28293          	addi	t0,t0,-292 # 80000004 <trap_vector>
    80000130:	30529073          	csrw	mtvec,t0
    80000134:	00100513          	li	a0,1
    80000138:	01f51513          	slli	a0,a0,0x1f
    8000013c:	00055c63          	bgez	a0,80000154 <reset_vector+0x100>
    80000140:	0ff0000f          	fence
    80000144:	00100193          	li	gp,1
    80000148:	05d00893          	li	a7,93
    8000014c:	00000513          	li	a0,0
    80000150:	00000073          	ecall
    80000154:	00000293          	li	t0,0
    80000158:	00028a63          	beqz	t0,8000016c <reset_vector+0x118>
    8000015c:	10529073          	csrw	stvec,t0
    80000160:	0000b2b7          	lui	t0,0xb
    80000164:	1092829b          	addiw	t0,t0,265 # b109 <_start-0x7fff4ef7>
    80000168:	30229073          	csrw	medeleg,t0
    8000016c:	30005073          	csrwi	mstatus,0
    80000170:	00002537          	lui	a0,0x2
    80000174:	8005051b          	addiw	a0,a0,-2048 # 1800 <_start-0x7fffe800>
    80000178:	30052073          	csrs	mstatus,a0
    8000017c:	00000297          	auipc	t0,0x0
    80000180:	01428293          	addi	t0,t0,20 # 80000190 <test_2>
    80000184:	34129073          	csrw	mepc,t0
    80000188:	f1402573          	csrr	a0,mhartid
    8000018c:	30200073          	mret

0000000080000190 <test_2>:
    80000190:	00200193          	li	gp,2
    80000194:	080707b7          	lui	a5,0x8070
    80000198:	6057879b          	addiw	a5,a5,1541 # 8070605 <_start-0x77f8f9fb>
    8000019c:	01079793          	slli	a5,a5,0x10
    800001a0:	40378793          	addi	a5,a5,1027
    800001a4:	01079793          	slli	a5,a5,0x10
    800001a8:	20178793          	addi	a5,a5,513
    800001ac:	00002097          	auipc	ra,0x2
    800001b0:	e5408093          	addi	ra,ra,-428 # 80002000 <begin_signature>
    800001b4:	0000b703          	ld	a4,0(ra)
    800001b8:	080703b7          	lui	t2,0x8070
    800001bc:	6053839b          	addiw	t2,t2,1541 # 8070605 <_start-0x77f8f9fb>
    800001c0:	01039393          	slli	t2,t2,0x10
    800001c4:	40338393          	addi	t2,t2,1027
    800001c8:	01039393          	slli	t2,t2,0x10
    800001cc:	20138393          	addi	t2,t2,513
    800001d0:	20771a63          	bne	a4,t2,800003e4 <fail>

00000000800001d4 <test_3>:
    800001d4:	00300193          	li	gp,3
    800001d8:	048407b7          	lui	a5,0x4840
    800001dc:	3837879b          	addiw	a5,a5,899 # 4840383 <_start-0x7b7bfc7d>
    800001e0:	00f79793          	slli	a5,a5,0xf
    800001e4:	14178793          	addi	a5,a5,321
    800001e8:	01279793          	slli	a5,a5,0x12
    800001ec:	30278793          	addi	a5,a5,770
    800001f0:	00002097          	auipc	ra,0x2
    800001f4:	e1008093          	addi	ra,ra,-496 # 80002000 <begin_signature>
    800001f8:	0010b703          	ld	a4,1(ra)
    800001fc:	048403b7          	lui	t2,0x4840
    80000200:	3833839b          	addiw	t2,t2,899 # 4840383 <_start-0x7b7bfc7d>
    80000204:	00f39393          	slli	t2,t2,0xf
    80000208:	14138393          	addi	t2,t2,321
    8000020c:	01239393          	slli	t2,t2,0x12
    80000210:	30238393          	addi	t2,t2,770
    80000214:	1c771863          	bne	a4,t2,800003e4 <fail>

0000000080000218 <test_4>:
    80000218:	00400193          	li	gp,4
    8000021c:	0a0917b7          	lui	a5,0xa091
    80000220:	8077879b          	addiw	a5,a5,-2041 # a090807 <_start-0x75f6f7f9>
    80000224:	01079793          	slli	a5,a5,0x10
    80000228:	60578793          	addi	a5,a5,1541
    8000022c:	01079793          	slli	a5,a5,0x10
    80000230:	40378793          	addi	a5,a5,1027
    80000234:	00002097          	auipc	ra,0x2
    80000238:	dcc08093          	addi	ra,ra,-564 # 80002000 <begin_signature>
    8000023c:	0020b703          	ld	a4,2(ra)
    80000240:	0a0913b7          	lui	t2,0xa091
    80000244:	8073839b          	addiw	t2,t2,-2041 # a090807 <_start-0x75f6f7f9>
    80000248:	01039393          	slli	t2,t2,0x10
    8000024c:	60538393          	addi	t2,t2,1541
    80000250:	01039393          	slli	t2,t2,0x10
    80000254:	40338393          	addi	t2,t2,1027
    80000258:	18771663          	bne	a4,t2,800003e4 <fail>

000000008000025c <test_5>:
    8000025c:	00500193          	li	gp,5
    80000260:	016147b7          	lui	a5,0x1614
    80000264:	1217879b          	addiw	a5,a5,289 # 1614121 <_start-0x7e9ebedf>
    80000268:	01279793          	slli	a5,a5,0x12
    8000026c:	38378793          	addi	a5,a5,899
    80000270:	01179793          	slli	a5,a5,0x11
    80000274:	50478793          	addi	a5,a5,1284
    80000278:	00002097          	auipc	ra,0x2
    8000027c:	d8808093          	addi	ra,ra,-632 # 80002000 <begin_signature>
    80000280:	0030b703          	ld	a4,3(ra)
    80000284:	016143b7          	lui	t2,0x1614
    80000288:	1213839b          	addiw	t2,t2,289 # 1614121 <_start-0x7e9ebedf>
    8000028c:	01239393          	slli	t2,t2,0x12
    80000290:	38338393          	addi	t2,t2,899
    80000294:	01139393          	slli	t2,t2,0x11
    80000298:	50438393          	addi	t2,t2,1284
    8000029c:	14771463          	bne	a4,t2,800003e4 <fail>

00000000800002a0 <test_6>:
    800002a0:	00600193          	li	gp,6
    800002a4:	000607b7          	lui	a5,0x60
    800002a8:	5857879b          	addiw	a5,a5,1413 # 60585 <_start-0x7ff9fa7b>
    800002ac:	00d79793          	slli	a5,a5,0xd
    800002b0:	09178793          	addi	a5,a5,145
    800002b4:	00c79793          	slli	a5,a5,0xc
    800002b8:	80778793          	addi	a5,a5,-2041
    800002bc:	01079793          	slli	a5,a5,0x10
    800002c0:	60578793          	addi	a5,a5,1541
    800002c4:	00002097          	auipc	ra,0x2
    800002c8:	d3c08093          	addi	ra,ra,-708 # 80002000 <begin_signature>
    800002cc:	0040b703          	ld	a4,4(ra)
    800002d0:	000603b7          	lui	t2,0x60
    800002d4:	5853839b          	addiw	t2,t2,1413 # 60585 <_start-0x7ff9fa7b>
    800002d8:	00d39393          	slli	t2,t2,0xd
    800002dc:	09138393          	addi	t2,t2,145
    800002e0:	00c39393          	slli	t2,t2,0xc
    800002e4:	80738393          	addi	t2,t2,-2041
    800002e8:	01039393          	slli	t2,t2,0x10
    800002ec:	60538393          	addi	t2,t2,1541
    800002f0:	0e771a63          	bne	a4,t2,800003e4 <fail>

00000000800002f4 <test_7>:
    800002f4:	00700193          	li	gp,7
    800002f8:	068607b7          	lui	a5,0x6860
    800002fc:	5857879b          	addiw	a5,a5,1413 # 6860585 <_start-0x7979fa7b>
    80000300:	00e79793          	slli	a5,a5,0xe
    80000304:	12178793          	addi	a5,a5,289
    80000308:	01379793          	slli	a5,a5,0x13
    8000030c:	70678793          	addi	a5,a5,1798
    80000310:	00002097          	auipc	ra,0x2
    80000314:	cf008093          	addi	ra,ra,-784 # 80002000 <begin_signature>
    80000318:	0050b703          	ld	a4,5(ra)
    8000031c:	068603b7          	lui	t2,0x6860
    80000320:	5853839b          	addiw	t2,t2,1413 # 6860585 <_start-0x7979fa7b>
    80000324:	00e39393          	slli	t2,t2,0xe
    80000328:	12138393          	addi	t2,t2,289
    8000032c:	01339393          	slli	t2,t2,0x13
    80000330:	70638393          	addi	t2,t2,1798
    80000334:	0a771863          	bne	a4,t2,800003e4 <fail>

0000000080000338 <test_8>:
    80000338:	00800193          	li	gp,8
    8000033c:	000387b7          	lui	a5,0x38
    80000340:	3437879b          	addiw	a5,a5,835 # 38343 <_start-0x7ffc7cbd>
    80000344:	01179793          	slli	a5,a5,0x11
    80000348:	58578793          	addi	a5,a5,1413
    8000034c:	00d79793          	slli	a5,a5,0xd
    80000350:	09178793          	addi	a5,a5,145
    80000354:	00c79793          	slli	a5,a5,0xc
    80000358:	80778793          	addi	a5,a5,-2041
    8000035c:	00002097          	auipc	ra,0x2
    80000360:	ca408093          	addi	ra,ra,-860 # 80002000 <begin_signature>
    80000364:	0060b703          	ld	a4,6(ra)
    80000368:	000383b7          	lui	t2,0x38
    8000036c:	3433839b          	addiw	t2,t2,835 # 38343 <_start-0x7ffc7cbd>
    80000370:	01139393          	slli	t2,t2,0x11
    80000374:	58538393          	addi	t2,t2,1413
    80000378:	00d39393          	slli	t2,t2,0xd
    8000037c:	09138393          	addi	t2,t2,145
    80000380:	00c39393          	slli	t2,t2,0xc
    80000384:	80738393          	addi	t2,t2,-2041
    80000388:	04771e63          	bne	a4,t2,800003e4 <fail>

000000008000038c <test_9>:
    8000038c:	00900193          	li	gp,9
    80000390:	00f0e7b7          	lui	a5,0xf0e
    80000394:	0d17879b          	addiw	a5,a5,209 # f0e0d1 <_start-0x7f0f1f2f>
    80000398:	00c79793          	slli	a5,a5,0xc
    8000039c:	c0b78793          	addi	a5,a5,-1013
    800003a0:	00c79793          	slli	a5,a5,0xc
    800003a4:	0a178793          	addi	a5,a5,161
    800003a8:	00c79793          	slli	a5,a5,0xc
    800003ac:	90878793          	addi	a5,a5,-1784
    800003b0:	00002097          	auipc	ra,0x2
    800003b4:	c5008093          	addi	ra,ra,-944 # 80002000 <begin_signature>
    800003b8:	0070b703          	ld	a4,7(ra)
    800003bc:	00f0e3b7          	lui	t2,0xf0e
    800003c0:	0d13839b          	addiw	t2,t2,209 # f0e0d1 <_start-0x7f0f1f2f>
    800003c4:	00c39393          	slli	t2,t2,0xc
    800003c8:	c0b38393          	addi	t2,t2,-1013
    800003cc:	00c39393          	slli	t2,t2,0xc
    800003d0:	0a138393          	addi	t2,t2,161
    800003d4:	00c39393          	slli	t2,t2,0xc
    800003d8:	90838393          	addi	t2,t2,-1784
    800003dc:	00771463          	bne	a4,t2,800003e4 <fail>
    800003e0:	02301063          	bne	zero,gp,80000400 <pass>

00000000800003e4 <fail>:
    800003e4:	0ff0000f          	fence
    800003e8:	00018063          	beqz	gp,800003e8 <fail+0x4>
    800003ec:	00119193          	slli	gp,gp,0x1
    800003f0:	0011e193          	ori	gp,gp,1
    800003f4:	05d00893          	li	a7,93
    800003f8:	00018513          	mv	a0,gp
    800003fc:	00000073          	ecall

0000000080000400 <pass>:
    80000400:	0ff0000f          	fence
    80000404:	00100193          	li	gp,1
    80000408:	05d00893          	li	a7,93
    8000040c:	00000513          	li	a0,0
    80000410:	00000073          	ecall

0000000080000414 <mtvec_handler>:
    80000414:	00400293          	li	t0,4
    80000418:	34202373          	csrr	t1,mcause
    8000041c:	fc6294e3          	bne	t0,t1,800003e4 <fail>
    80000420:	00078713          	mv	a4,a5
    80000424:	341022f3          	csrr	t0,mepc
    80000428:	00428293          	addi	t0,t0,4
    8000042c:	34129073          	csrw	mepc,t0
    80000430:	30200073          	mret
    80000434:	c0001073          	unimp
    80000438:	0000                	.2byte	0x0
    8000043a:	0000                	.2byte	0x0
    8000043c:	0000                	.2byte	0x0
    8000043e:	0000                	.2byte	0x0
