
build/elf/rv64ui-v-ma_data：     文件格式 elf64-littleriscv


Disassembly of section .text.init:

0000000080000000 <_start>:
    80000000:	00c0006f          	j	8000000c <handle_reset>

0000000080000004 <nmi_vector>:
    80000004:	2bc0206f          	j	800022c0 <wtf>

0000000080000008 <trap_vector>:
    80000008:	2b80206f          	j	800022c0 <wtf>

000000008000000c <handle_reset>:
    8000000c:	00000093          	li	ra,0
    80000010:	00000113          	li	sp,0
    80000014:	00000193          	li	gp,0
    80000018:	00000213          	li	tp,0
    8000001c:	00000293          	li	t0,0
    80000020:	00000313          	li	t1,0
    80000024:	00000393          	li	t2,0
    80000028:	00000413          	li	s0,0
    8000002c:	00000493          	li	s1,0
    80000030:	00000513          	li	a0,0
    80000034:	00000593          	li	a1,0
    80000038:	00000613          	li	a2,0
    8000003c:	00000693          	li	a3,0
    80000040:	00000713          	li	a4,0
    80000044:	00000793          	li	a5,0
    80000048:	00000813          	li	a6,0
    8000004c:	00000893          	li	a7,0
    80000050:	00000913          	li	s2,0
    80000054:	00000993          	li	s3,0
    80000058:	00000a13          	li	s4,0
    8000005c:	00000a93          	li	s5,0
    80000060:	00000b13          	li	s6,0
    80000064:	00000b93          	li	s7,0
    80000068:	00000c13          	li	s8,0
    8000006c:	00000c93          	li	s9,0
    80000070:	00000d13          	li	s10,0
    80000074:	00000d93          	li	s11,0
    80000078:	00000e13          	li	t3,0
    8000007c:	00000e93          	li	t4,0
    80000080:	00000f13          	li	t5,0
    80000084:	00000f93          	li	t6,0
    80000088:	00000297          	auipc	t0,0x0
    8000008c:	f8028293          	addi	t0,t0,-128 # 80000008 <trap_vector>
    80000090:	30529073          	csrw	mtvec,t0
    80000094:	0000f117          	auipc	sp,0xf
    80000098:	e4c10113          	addi	sp,sp,-436 # 8000eee0 <freelist_head+0x3ed8>
    8000009c:	f14022f3          	csrr	t0,mhartid
    800000a0:	00c29293          	slli	t0,t0,0xc
    800000a4:	00510133          	add	sp,sp,t0
    800000a8:	34011073          	csrw	mscratch,sp
    800000ac:	225020ef          	jal	ra,80002ad0 <extra_boot>
    800000b0:	00003517          	auipc	a0,0x3
    800000b4:	a3450513          	addi	a0,a0,-1484 # 80002ae4 <userstart>
    800000b8:	7cc0206f          	j	80002884 <vm_boot>

00000000800000bc <pop_tf>:
    800000bc:	10853283          	ld	t0,264(a0)
    800000c0:	14129073          	csrw	sepc,t0
    800000c4:	00853083          	ld	ra,8(a0)
    800000c8:	01053103          	ld	sp,16(a0)
    800000cc:	01853183          	ld	gp,24(a0)
    800000d0:	02053203          	ld	tp,32(a0)
    800000d4:	02853283          	ld	t0,40(a0)
    800000d8:	03053303          	ld	t1,48(a0)
    800000dc:	03853383          	ld	t2,56(a0)
    800000e0:	04053403          	ld	s0,64(a0)
    800000e4:	04853483          	ld	s1,72(a0)
    800000e8:	05853583          	ld	a1,88(a0)
    800000ec:	06053603          	ld	a2,96(a0)
    800000f0:	06853683          	ld	a3,104(a0)
    800000f4:	07053703          	ld	a4,112(a0)
    800000f8:	07853783          	ld	a5,120(a0)
    800000fc:	08053803          	ld	a6,128(a0)
    80000100:	08853883          	ld	a7,136(a0)
    80000104:	09053903          	ld	s2,144(a0)
    80000108:	09853983          	ld	s3,152(a0)
    8000010c:	0a053a03          	ld	s4,160(a0)
    80000110:	0a853a83          	ld	s5,168(a0)
    80000114:	0b053b03          	ld	s6,176(a0)
    80000118:	0b853b83          	ld	s7,184(a0)
    8000011c:	0c053c03          	ld	s8,192(a0)
    80000120:	0c853c83          	ld	s9,200(a0)
    80000124:	0d053d03          	ld	s10,208(a0)
    80000128:	0d853d83          	ld	s11,216(a0)
    8000012c:	0e053e03          	ld	t3,224(a0)
    80000130:	0e853e83          	ld	t4,232(a0)
    80000134:	0f053f03          	ld	t5,240(a0)
    80000138:	0f853f83          	ld	t6,248(a0)
    8000013c:	05053503          	ld	a0,80(a0)
    80000140:	10200073          	sret

0000000080000144 <trap_entry>:
    80000144:	14011173          	csrrw	sp,sscratch,sp
    80000148:	00113423          	sd	ra,8(sp)
    8000014c:	00313c23          	sd	gp,24(sp)
    80000150:	02413023          	sd	tp,32(sp)
    80000154:	02513423          	sd	t0,40(sp)
    80000158:	02613823          	sd	t1,48(sp)
    8000015c:	02713c23          	sd	t2,56(sp)
    80000160:	04813023          	sd	s0,64(sp)
    80000164:	04913423          	sd	s1,72(sp)
    80000168:	04a13823          	sd	a0,80(sp)
    8000016c:	04b13c23          	sd	a1,88(sp)
    80000170:	06c13023          	sd	a2,96(sp)
    80000174:	06d13423          	sd	a3,104(sp)
    80000178:	06e13823          	sd	a4,112(sp)
    8000017c:	06f13c23          	sd	a5,120(sp)
    80000180:	09013023          	sd	a6,128(sp)
    80000184:	09113423          	sd	a7,136(sp)
    80000188:	09213823          	sd	s2,144(sp)
    8000018c:	09313c23          	sd	s3,152(sp)
    80000190:	0b413023          	sd	s4,160(sp)
    80000194:	0b513423          	sd	s5,168(sp)
    80000198:	0b613823          	sd	s6,176(sp)
    8000019c:	0b713c23          	sd	s7,184(sp)
    800001a0:	0d813023          	sd	s8,192(sp)
    800001a4:	0d913423          	sd	s9,200(sp)
    800001a8:	0da13823          	sd	s10,208(sp)
    800001ac:	0db13c23          	sd	s11,216(sp)
    800001b0:	0fc13023          	sd	t3,224(sp)
    800001b4:	0fd13423          	sd	t4,232(sp)
    800001b8:	0fe13823          	sd	t5,240(sp)
    800001bc:	0ff13c23          	sd	t6,248(sp)
    800001c0:	140112f3          	csrrw	t0,sscratch,sp
    800001c4:	00513823          	sd	t0,16(sp)
    800001c8:	100022f3          	csrr	t0,sstatus
    800001cc:	10513023          	sd	t0,256(sp)
    800001d0:	141022f3          	csrr	t0,sepc
    800001d4:	10513423          	sd	t0,264(sp)
    800001d8:	143022f3          	csrr	t0,stval
    800001dc:	10513823          	sd	t0,272(sp)
    800001e0:	142022f3          	csrr	t0,scause
    800001e4:	10513c23          	sd	t0,280(sp)
    800001e8:	00010513          	mv	a0,sp
    800001ec:	4140206f          	j	80002600 <handle_trap>

Disassembly of section .text:

0000000080002000 <memcpy>:
    80002000:	00b567b3          	or	a5,a0,a1
    80002004:	00c7e7b3          	or	a5,a5,a2
    80002008:	0077f793          	andi	a5,a5,7
    8000200c:	00c506b3          	add	a3,a0,a2
    80002010:	02078463          	beqz	a5,80002038 <memcpy+0x38>
    80002014:	00c58633          	add	a2,a1,a2
    80002018:	00050793          	mv	a5,a0
    8000201c:	02d57e63          	bgeu	a0,a3,80002058 <memcpy+0x58>
    80002020:	0005c703          	lbu	a4,0(a1)
    80002024:	00158593          	addi	a1,a1,1
    80002028:	00178793          	addi	a5,a5,1
    8000202c:	fee78fa3          	sb	a4,-1(a5)
    80002030:	fec598e3          	bne	a1,a2,80002020 <memcpy+0x20>
    80002034:	00008067          	ret
    80002038:	fed57ee3          	bgeu	a0,a3,80002034 <memcpy+0x34>
    8000203c:	00050793          	mv	a5,a0
    80002040:	0005b703          	ld	a4,0(a1)
    80002044:	00878793          	addi	a5,a5,8
    80002048:	00858593          	addi	a1,a1,8
    8000204c:	fee7bc23          	sd	a4,-8(a5)
    80002050:	fed7e8e3          	bltu	a5,a3,80002040 <memcpy+0x40>
    80002054:	00008067          	ret
    80002058:	00008067          	ret

000000008000205c <memset>:
    8000205c:	ff010113          	addi	sp,sp,-16
    80002060:	00c567b3          	or	a5,a0,a2
    80002064:	00813023          	sd	s0,0(sp)
    80002068:	00113423          	sd	ra,8(sp)
    8000206c:	0077f793          	andi	a5,a5,7
    80002070:	00050413          	mv	s0,a0
    80002074:	00c50733          	add	a4,a0,a2
    80002078:	02078263          	beqz	a5,8000209c <memset+0x40>
    8000207c:	00e57663          	bgeu	a0,a4,80002088 <memset+0x2c>
    80002080:	0ff5f593          	zext.b	a1,a1
    80002084:	fd9ff0ef          	jal	ra,8000205c <memset>
    80002088:	00813083          	ld	ra,8(sp)
    8000208c:	00040513          	mv	a0,s0
    80002090:	00013403          	ld	s0,0(sp)
    80002094:	01010113          	addi	sp,sp,16
    80002098:	00008067          	ret
    8000209c:	0ff5f593          	zext.b	a1,a1
    800020a0:	00002797          	auipc	a5,0x2
    800020a4:	6d87b783          	ld	a5,1752(a5) # 80004778 <pass+0xc>
    800020a8:	02f585b3          	mul	a1,a1,a5
    800020ac:	fce57ee3          	bgeu	a0,a4,80002088 <memset+0x2c>
    800020b0:	00050793          	mv	a5,a0
    800020b4:	00878793          	addi	a5,a5,8
    800020b8:	feb7bc23          	sd	a1,-8(a5)
    800020bc:	fee7ece3          	bltu	a5,a4,800020b4 <memset+0x58>
    800020c0:	00813083          	ld	ra,8(sp)
    800020c4:	00040513          	mv	a0,s0
    800020c8:	00013403          	ld	s0,0(sp)
    800020cc:	01010113          	addi	sp,sp,16
    800020d0:	00008067          	ret

00000000800020d4 <strlen>:
    800020d4:	00054783          	lbu	a5,0(a0)
    800020d8:	00078e63          	beqz	a5,800020f4 <strlen+0x20>
    800020dc:	00050793          	mv	a5,a0
    800020e0:	0017c703          	lbu	a4,1(a5)
    800020e4:	00178793          	addi	a5,a5,1
    800020e8:	fe071ce3          	bnez	a4,800020e0 <strlen+0xc>
    800020ec:	40a78533          	sub	a0,a5,a0
    800020f0:	00008067          	ret
    800020f4:	00000513          	li	a0,0
    800020f8:	00008067          	ret

00000000800020fc <strcmp>:
    800020fc:	00054783          	lbu	a5,0(a0)
    80002100:	00158593          	addi	a1,a1,1
    80002104:	00150513          	addi	a0,a0,1
    80002108:	fff5c703          	lbu	a4,-1(a1)
    8000210c:	00078a63          	beqz	a5,80002120 <strcmp+0x24>
    80002110:	fee786e3          	beq	a5,a4,800020fc <strcmp>
    80002114:	0007851b          	sext.w	a0,a5
    80002118:	40e5053b          	subw	a0,a0,a4
    8000211c:	00008067          	ret
    80002120:	00000513          	li	a0,0
    80002124:	ff5ff06f          	j	80002118 <strcmp+0x1c>

0000000080002128 <memcmp>:
    80002128:	00b567b3          	or	a5,a0,a1
    8000212c:	0077f793          	andi	a5,a5,7
    80002130:	02079e63          	bnez	a5,8000216c <memcmp+0x44>
    80002134:	ff867813          	andi	a6,a2,-8
    80002138:	01050833          	add	a6,a0,a6
    8000213c:	03057863          	bgeu	a0,a6,8000216c <memcmp+0x44>
    80002140:	00050793          	mv	a5,a0
    80002144:	0100006f          	j	80002154 <memcmp+0x2c>
    80002148:	00878793          	addi	a5,a5,8
    8000214c:	00858593          	addi	a1,a1,8
    80002150:	0107f863          	bgeu	a5,a6,80002160 <memcmp+0x38>
    80002154:	0007b683          	ld	a3,0(a5)
    80002158:	0005b703          	ld	a4,0(a1)
    8000215c:	fee686e3          	beq	a3,a4,80002148 <memcmp+0x20>
    80002160:	40a78533          	sub	a0,a5,a0
    80002164:	40a60633          	sub	a2,a2,a0
    80002168:	00078513          	mv	a0,a5
    8000216c:	00c58633          	add	a2,a1,a2
    80002170:	0140006f          	j	80002184 <memcmp+0x5c>
    80002174:	0005c703          	lbu	a4,0(a1)
    80002178:	fff54783          	lbu	a5,-1(a0)
    8000217c:	00158593          	addi	a1,a1,1
    80002180:	00e79a63          	bne	a5,a4,80002194 <memcmp+0x6c>
    80002184:	00150513          	addi	a0,a0,1
    80002188:	fec596e3          	bne	a1,a2,80002174 <memcmp+0x4c>
    8000218c:	00000513          	li	a0,0
    80002190:	00008067          	ret
    80002194:	40e7853b          	subw	a0,a5,a4
    80002198:	00008067          	ret

000000008000219c <strcpy>:
    8000219c:	00050793          	mv	a5,a0
    800021a0:	0005c703          	lbu	a4,0(a1)
    800021a4:	00178793          	addi	a5,a5,1
    800021a8:	00158593          	addi	a1,a1,1
    800021ac:	fee78fa3          	sb	a4,-1(a5)
    800021b0:	fe0718e3          	bnez	a4,800021a0 <strcpy+0x4>
    800021b4:	00008067          	ret

00000000800021b8 <atol>:
    800021b8:	00054703          	lbu	a4,0(a0)
    800021bc:	02000693          	li	a3,32
    800021c0:	00050793          	mv	a5,a0
    800021c4:	00d71863          	bne	a4,a3,800021d4 <atol+0x1c>
    800021c8:	0017c703          	lbu	a4,1(a5)
    800021cc:	00178793          	addi	a5,a5,1
    800021d0:	fed70ce3          	beq	a4,a3,800021c8 <atol+0x10>
    800021d4:	02d00693          	li	a3,45
    800021d8:	06d70063          	beq	a4,a3,80002238 <atol+0x80>
    800021dc:	02b00693          	li	a3,43
    800021e0:	04d70063          	beq	a4,a3,80002220 <atol+0x68>
    800021e4:	0007c683          	lbu	a3,0(a5)
    800021e8:	00000593          	li	a1,0
    800021ec:	04068263          	beqz	a3,80002230 <atol+0x78>
    800021f0:	00000513          	li	a0,0
    800021f4:	00178793          	addi	a5,a5,1
    800021f8:	00251713          	slli	a4,a0,0x2
    800021fc:	fd06861b          	addiw	a2,a3,-48
    80002200:	0007c683          	lbu	a3,0(a5)
    80002204:	00a70733          	add	a4,a4,a0
    80002208:	00171713          	slli	a4,a4,0x1
    8000220c:	00e60533          	add	a0,a2,a4
    80002210:	fe0692e3          	bnez	a3,800021f4 <atol+0x3c>
    80002214:	02058063          	beqz	a1,80002234 <atol+0x7c>
    80002218:	40a00533          	neg	a0,a0
    8000221c:	00008067          	ret
    80002220:	0017c683          	lbu	a3,1(a5)
    80002224:	00000593          	li	a1,0
    80002228:	00178793          	addi	a5,a5,1
    8000222c:	fc0692e3          	bnez	a3,800021f0 <atol+0x38>
    80002230:	00000513          	li	a0,0
    80002234:	00008067          	ret
    80002238:	0017c683          	lbu	a3,1(a5)
    8000223c:	00100593          	li	a1,1
    80002240:	00178793          	addi	a5,a5,1
    80002244:	fa0696e3          	bnez	a3,800021f0 <atol+0x38>
    80002248:	00000513          	li	a0,0
    8000224c:	fe9ff06f          	j	80002234 <atol+0x7c>

0000000080002250 <cputstring>:
    80002250:	00054783          	lbu	a5,0(a0)
    80002254:	04078063          	beqz	a5,80002294 <cputstring+0x44>
    80002258:	10100593          	li	a1,257
    8000225c:	fffff717          	auipc	a4,0xfffff
    80002260:	da470713          	addi	a4,a4,-604 # 80001000 <tohost>
    80002264:	03059593          	slli	a1,a1,0x30
    80002268:	00073603          	ld	a2,0(a4)
    8000226c:	00150513          	addi	a0,a0,1
    80002270:	00b7e6b3          	or	a3,a5,a1
    80002274:	00060a63          	beqz	a2,80002288 <cputstring+0x38>
    80002278:	fffff797          	auipc	a5,0xfffff
    8000227c:	dc07b423          	sd	zero,-568(a5) # 80001040 <fromhost>
    80002280:	00073783          	ld	a5,0(a4)
    80002284:	fe079ae3          	bnez	a5,80002278 <cputstring+0x28>
    80002288:	00d73023          	sd	a3,0(a4)
    8000228c:	00054783          	lbu	a5,0(a0)
    80002290:	fc079ce3          	bnez	a5,80002268 <cputstring+0x18>
    80002294:	00008067          	ret

0000000080002298 <terminate>:
    80002298:	fffff717          	auipc	a4,0xfffff
    8000229c:	d6870713          	addi	a4,a4,-664 # 80001000 <tohost>
    800022a0:	00073783          	ld	a5,0(a4)
    800022a4:	00078a63          	beqz	a5,800022b8 <terminate+0x20>
    800022a8:	fffff797          	auipc	a5,0xfffff
    800022ac:	d807bc23          	sd	zero,-616(a5) # 80001040 <fromhost>
    800022b0:	00073783          	ld	a5,0(a4)
    800022b4:	fe079ae3          	bnez	a5,800022a8 <terminate+0x10>
    800022b8:	00a73023          	sd	a0,0(a4)
    800022bc:	0000006f          	j	800022bc <terminate+0x24>

00000000800022c0 <wtf>:
    800022c0:	ff010113          	addi	sp,sp,-16
    800022c4:	34900513          	li	a0,841
    800022c8:	00113423          	sd	ra,8(sp)
    800022cc:	fcdff0ef          	jal	ra,80002298 <terminate>

00000000800022d0 <printhex>:
    800022d0:	fe010113          	addi	sp,sp,-32
    800022d4:	00810613          	addi	a2,sp,8
    800022d8:	01710713          	addi	a4,sp,23
    800022dc:	00900813          	li	a6,9
    800022e0:	0080006f          	j	800022e8 <printhex+0x18>
    800022e4:	00078713          	mv	a4,a5
    800022e8:	00f57693          	andi	a3,a0,15
    800022ec:	00068593          	mv	a1,a3
    800022f0:	03000793          	li	a5,48
    800022f4:	00d87463          	bgeu	a6,a3,800022fc <printhex+0x2c>
    800022f8:	05700793          	li	a5,87
    800022fc:	00b787bb          	addw	a5,a5,a1
    80002300:	00f70023          	sb	a5,0(a4)
    80002304:	00455513          	srli	a0,a0,0x4
    80002308:	fff70793          	addi	a5,a4,-1
    8000230c:	fce61ce3          	bne	a2,a4,800022e4 <printhex+0x14>
    80002310:	00814783          	lbu	a5,8(sp)
    80002314:	00010c23          	sb	zero,24(sp)
    80002318:	fffff717          	auipc	a4,0xfffff
    8000231c:	ce870713          	addi	a4,a4,-792 # 80001000 <tohost>
    80002320:	04078a63          	beqz	a5,80002374 <printhex+0xa4>
    80002324:	10100513          	li	a0,257
    80002328:	00060693          	mv	a3,a2
    8000232c:	fffff717          	auipc	a4,0xfffff
    80002330:	cd470713          	addi	a4,a4,-812 # 80001000 <tohost>
    80002334:	03051513          	slli	a0,a0,0x30
    80002338:	00073583          	ld	a1,0(a4)
    8000233c:	00168693          	addi	a3,a3,1
    80002340:	00a7e633          	or	a2,a5,a0
    80002344:	00058a63          	beqz	a1,80002358 <printhex+0x88>
    80002348:	fffff797          	auipc	a5,0xfffff
    8000234c:	ce07bc23          	sd	zero,-776(a5) # 80001040 <fromhost>
    80002350:	00073783          	ld	a5,0(a4)
    80002354:	fe079ae3          	bnez	a5,80002348 <printhex+0x78>
    80002358:	0006c783          	lbu	a5,0(a3)
    8000235c:	00c73023          	sd	a2,0(a4)
    80002360:	fc079ce3          	bnez	a5,80002338 <printhex+0x68>
    80002364:	00073783          	ld	a5,0(a4)
    80002368:	00078a63          	beqz	a5,8000237c <printhex+0xac>
    8000236c:	fffff797          	auipc	a5,0xfffff
    80002370:	cc07ba23          	sd	zero,-812(a5) # 80001040 <fromhost>
    80002374:	00073783          	ld	a5,0(a4)
    80002378:	fe079ae3          	bnez	a5,8000236c <printhex+0x9c>
    8000237c:	10100793          	li	a5,257
    80002380:	03079793          	slli	a5,a5,0x30
    80002384:	00a78793          	addi	a5,a5,10
    80002388:	00f73023          	sd	a5,0(a4)
    8000238c:	02010113          	addi	sp,sp,32
    80002390:	00008067          	ret

0000000080002394 <handle_fault>:
    80002394:	fb010113          	addi	sp,sp,-80
    80002398:	00100793          	li	a5,1
    8000239c:	10100893          	li	a7,257
    800023a0:	04813023          	sd	s0,64(sp)
    800023a4:	02913c23          	sd	s1,56(sp)
    800023a8:	00f12223          	sw	a5,4(sp)
    800023ac:	04113423          	sd	ra,72(sp)
    800023b0:	03213823          	sd	s2,48(sp)
    800023b4:	03313423          	sd	s3,40(sp)
    800023b8:	03413023          	sd	s4,32(sp)
    800023bc:	01513c23          	sd	s5,24(sp)
    800023c0:	00050413          	mv	s0,a0
    800023c4:	00058493          	mv	s1,a1
    800023c8:	00013423          	sd	zero,8(sp)
    800023cc:	06800793          	li	a5,104
    800023d0:	00002697          	auipc	a3,0x2
    800023d4:	3b068693          	addi	a3,a3,944 # 80004780 <pass+0x14>
    800023d8:	fffff717          	auipc	a4,0xfffff
    800023dc:	c2870713          	addi	a4,a4,-984 # 80001000 <tohost>
    800023e0:	03089893          	slli	a7,a7,0x30
    800023e4:	00073803          	ld	a6,0(a4)
    800023e8:	00168693          	addi	a3,a3,1
    800023ec:	0117e633          	or	a2,a5,a7
    800023f0:	00080a63          	beqz	a6,80002404 <handle_fault+0x70>
    800023f4:	fffff797          	auipc	a5,0xfffff
    800023f8:	c407b623          	sd	zero,-948(a5) # 80001040 <fromhost>
    800023fc:	00073783          	ld	a5,0(a4)
    80002400:	fe079ae3          	bnez	a5,800023f4 <handle_fault+0x60>
    80002404:	0006c783          	lbu	a5,0(a3)
    80002408:	00c73023          	sd	a2,0(a4)
    8000240c:	fc079ce3          	bnez	a5,800023e4 <handle_fault+0x50>
    80002410:	00040513          	mv	a0,s0
    80002414:	ebdff0ef          	jal	ra,800022d0 <printhex>
    80002418:	fffff737          	lui	a4,0xfffff
    8000241c:	00e406b3          	add	a3,s0,a4
    80002420:	0003e7b7          	lui	a5,0x3e
    80002424:	1af6fa63          	bgeu	a3,a5,800025d8 <handle_fault+0x244>
    80002428:	00c45a13          	srli	s4,s0,0xc
    8000242c:	600a0913          	addi	s2,s4,1536
    80002430:	00005997          	auipc	s3,0x5
    80002434:	bd098993          	addi	s3,s3,-1072 # 80007000 <pt>
    80002438:	00391793          	slli	a5,s2,0x3
    8000243c:	00f987b3          	add	a5,s3,a5
    80002440:	0007b783          	ld	a5,0(a5) # 3e000 <_start-0x7ffc2000>
    80002444:	00e47433          	and	s0,s0,a4
    80002448:	10079663          	bnez	a5,80002554 <handle_fault+0x1c0>
    8000244c:	00009717          	auipc	a4,0x9
    80002450:	bbc70713          	addi	a4,a4,-1092 # 8000b008 <freelist_head>
    80002454:	00073483          	ld	s1,0(a4)
    80002458:	18048a63          	beqz	s1,800025ec <handle_fault+0x258>
    8000245c:	0084b783          	ld	a5,8(s1)
    80002460:	00009697          	auipc	a3,0x9
    80002464:	ba06b683          	ld	a3,-1120(a3) # 8000b000 <freelist_tail>
    80002468:	00f73023          	sd	a5,0(a4)
    8000246c:	12d78c63          	beq	a5,a3,800025a4 <handle_fault+0x210>
    80002470:	00410613          	addi	a2,sp,4
    80002474:	00810593          	addi	a1,sp,8
    80002478:	00040513          	mv	a0,s0
    8000247c:	0004ba83          	ld	s5,0(s1)
    80002480:	65c000ef          	jal	ra,80002adc <pf_filter>
    80002484:	10051063          	bnez	a0,80002584 <handle_fault+0x1f0>
    80002488:	00cad693          	srli	a3,s5,0xc
    8000248c:	00a69693          	slli	a3,a3,0xa
    80002490:	01f6e693          	ori	a3,a3,31
    80002494:	00391793          	slli	a5,s2,0x3
    80002498:	00f987b3          	add	a5,s3,a5
    8000249c:	0c06e713          	ori	a4,a3,192
    800024a0:	00e7b023          	sd	a4,0(a5)
    800024a4:	12040073          	sfence.vma	s0
    800024a8:	00004797          	auipc	a5,0x4
    800024ac:	b5878793          	addi	a5,a5,-1192 # 80006000 <user_mapping>
    800024b0:	004a1a13          	slli	s4,s4,0x4
    800024b4:	014787b3          	add	a5,a5,s4
    800024b8:	0007b703          	ld	a4,0(a5)
    800024bc:	0e071a63          	bnez	a4,800025b0 <handle_fault+0x21c>
    800024c0:	0004b703          	ld	a4,0(s1)
    800024c4:	00040337          	lui	t1,0x40
    800024c8:	00e7b023          	sd	a4,0(a5)
    800024cc:	0084b703          	ld	a4,8(s1)
    800024d0:	00e7b423          	sd	a4,8(a5)
    800024d4:	10032373          	csrrs	t1,sstatus,t1
    800024d8:	ffe007b7          	lui	a5,0xffe00
    800024dc:	00f407b3          	add	a5,s0,a5
    800024e0:	000018b7          	lui	a7,0x1
    800024e4:	00040713          	mv	a4,s0
    800024e8:	011788b3          	add	a7,a5,a7
    800024ec:	0007b803          	ld	a6,0(a5) # ffffffffffe00000 <freelist_head+0xffffffff7fdf4ff8>
    800024f0:	0087b503          	ld	a0,8(a5)
    800024f4:	0107b583          	ld	a1,16(a5)
    800024f8:	0187b603          	ld	a2,24(a5)
    800024fc:	01073023          	sd	a6,0(a4)
    80002500:	00a73423          	sd	a0,8(a4)
    80002504:	00b73823          	sd	a1,16(a4)
    80002508:	00c73c23          	sd	a2,24(a4)
    8000250c:	02078793          	addi	a5,a5,32
    80002510:	02070713          	addi	a4,a4,32
    80002514:	fd179ce3          	bne	a5,a7,800024ec <handle_fault+0x158>
    80002518:	10031073          	csrw	sstatus,t1
    8000251c:	00391913          	slli	s2,s2,0x3
    80002520:	012987b3          	add	a5,s3,s2
    80002524:	00d7b023          	sd	a3,0(a5)
    80002528:	12040073          	sfence.vma	s0
    8000252c:	0000100f          	fence.i
    80002530:	04813083          	ld	ra,72(sp)
    80002534:	04013403          	ld	s0,64(sp)
    80002538:	03813483          	ld	s1,56(sp)
    8000253c:	03013903          	ld	s2,48(sp)
    80002540:	02813983          	ld	s3,40(sp)
    80002544:	02013a03          	ld	s4,32(sp)
    80002548:	01813a83          	ld	s5,24(sp)
    8000254c:	05010113          	addi	sp,sp,80
    80002550:	00008067          	ret
    80002554:	0407f713          	andi	a4,a5,64
    80002558:	04070263          	beqz	a4,8000259c <handle_fault+0x208>
    8000255c:	0807f713          	andi	a4,a5,128
    80002560:	06071263          	bnez	a4,800025c4 <handle_fault+0x230>
    80002564:	00f00713          	li	a4,15
    80002568:	0807e793          	ori	a5,a5,128
    8000256c:	04e49c63          	bne	s1,a4,800025c4 <handle_fault+0x230>
    80002570:	00391713          	slli	a4,s2,0x3
    80002574:	00e98733          	add	a4,s3,a4
    80002578:	00f73023          	sd	a5,0(a4)
    8000257c:	12040073          	sfence.vma	s0
    80002580:	fb1ff06f          	j	80002530 <handle_fault+0x19c>
    80002584:	0004b683          	ld	a3,0(s1)
    80002588:	00813783          	ld	a5,8(sp)
    8000258c:	00c6d693          	srli	a3,a3,0xc
    80002590:	00a69693          	slli	a3,a3,0xa
    80002594:	00f6e6b3          	or	a3,a3,a5
    80002598:	efdff06f          	j	80002494 <handle_fault+0x100>
    8000259c:	0407e793          	ori	a5,a5,64
    800025a0:	fd1ff06f          	j	80002570 <handle_fault+0x1dc>
    800025a4:	00009797          	auipc	a5,0x9
    800025a8:	a407be23          	sd	zero,-1444(a5) # 8000b000 <freelist_tail>
    800025ac:	ec5ff06f          	j	80002470 <handle_fault+0xdc>
    800025b0:	00002517          	auipc	a0,0x2
    800025b4:	28850513          	addi	a0,a0,648 # 80004838 <pass+0xcc>
    800025b8:	c99ff0ef          	jal	ra,80002250 <cputstring>
    800025bc:	00300513          	li	a0,3
    800025c0:	cd9ff0ef          	jal	ra,80002298 <terminate>
    800025c4:	00002517          	auipc	a0,0x2
    800025c8:	21450513          	addi	a0,a0,532 # 800047d8 <pass+0x6c>
    800025cc:	c85ff0ef          	jal	ra,80002250 <cputstring>
    800025d0:	00300513          	li	a0,3
    800025d4:	cc5ff0ef          	jal	ra,80002298 <terminate>
    800025d8:	00002517          	auipc	a0,0x2
    800025dc:	1b850513          	addi	a0,a0,440 # 80004790 <pass+0x24>
    800025e0:	c71ff0ef          	jal	ra,80002250 <cputstring>
    800025e4:	00300513          	li	a0,3
    800025e8:	cb1ff0ef          	jal	ra,80002298 <terminate>
    800025ec:	00002517          	auipc	a0,0x2
    800025f0:	23450513          	addi	a0,a0,564 # 80004820 <pass+0xb4>
    800025f4:	c5dff0ef          	jal	ra,80002250 <cputstring>
    800025f8:	00300513          	li	a0,3
    800025fc:	c9dff0ef          	jal	ra,80002298 <terminate>

0000000080002600 <handle_trap>:
    80002600:	f8010113          	addi	sp,sp,-128
    80002604:	06813823          	sd	s0,112(sp)
    80002608:	06113c23          	sd	ra,120(sp)
    8000260c:	06913423          	sd	s1,104(sp)
    80002610:	07213023          	sd	s2,96(sp)
    80002614:	05313c23          	sd	s3,88(sp)
    80002618:	05413823          	sd	s4,80(sp)
    8000261c:	05513423          	sd	s5,72(sp)
    80002620:	05613023          	sd	s6,64(sp)
    80002624:	03713c23          	sd	s7,56(sp)
    80002628:	03813823          	sd	s8,48(sp)
    8000262c:	03913423          	sd	s9,40(sp)
    80002630:	03a13023          	sd	s10,32(sp)
    80002634:	01b13c23          	sd	s11,24(sp)
    80002638:	00050413          	mv	s0,a0
    8000263c:	498000ef          	jal	ra,80002ad4 <trap_filter>
    80002640:	0e051263          	bnez	a0,80002724 <handle_trap+0x124>
    80002644:	11843583          	ld	a1,280(s0)
    80002648:	00800793          	li	a5,8
    8000264c:	10f58063          	beq	a1,a5,8000274c <handle_trap+0x14c>
    80002650:	00200793          	li	a5,2
    80002654:	06f58063          	beq	a1,a5,800026b4 <handle_trap+0xb4>
    80002658:	ff458793          	addi	a5,a1,-12
    8000265c:	00100713          	li	a4,1
    80002660:	00f77663          	bgeu	a4,a5,8000266c <handle_trap+0x6c>
    80002664:	00f00793          	li	a5,15
    80002668:	1ef59c63          	bne	a1,a5,80002860 <handle_trap+0x260>
    8000266c:	11043503          	ld	a0,272(s0)
    80002670:	d25ff0ef          	jal	ra,80002394 <handle_fault>
    80002674:	00040513          	mv	a0,s0
    80002678:	07013403          	ld	s0,112(sp)
    8000267c:	07813083          	ld	ra,120(sp)
    80002680:	06813483          	ld	s1,104(sp)
    80002684:	06013903          	ld	s2,96(sp)
    80002688:	05813983          	ld	s3,88(sp)
    8000268c:	05013a03          	ld	s4,80(sp)
    80002690:	04813a83          	ld	s5,72(sp)
    80002694:	04013b03          	ld	s6,64(sp)
    80002698:	03813b83          	ld	s7,56(sp)
    8000269c:	03013c03          	ld	s8,48(sp)
    800026a0:	02813c83          	ld	s9,40(sp)
    800026a4:	02013d03          	ld	s10,32(sp)
    800026a8:	01813d83          	ld	s11,24(sp)
    800026ac:	08010113          	addi	sp,sp,128
    800026b0:	a0dfd06f          	j	800000bc <pop_tf>
    800026b4:	10843703          	ld	a4,264(s0)
    800026b8:	00377793          	andi	a5,a4,3
    800026bc:	06079e63          	bnez	a5,80002738 <handle_trap+0x138>
    800026c0:	008007ef          	jal	a5,800026c8 <handle_trap+0xc8>
    800026c4:	00301073          	fscsr	zero
    800026c8:	00072703          	lw	a4,0(a4)
    800026cc:	0007a783          	lw	a5,0(a5)
    800026d0:	06f70063          	beq	a4,a5,80002730 <handle_trap+0x130>
    800026d4:	10100513          	li	a0,257
    800026d8:	04100793          	li	a5,65
    800026dc:	00002697          	auipc	a3,0x2
    800026e0:	19c68693          	addi	a3,a3,412 # 80004878 <pass+0x10c>
    800026e4:	fffff717          	auipc	a4,0xfffff
    800026e8:	91c70713          	addi	a4,a4,-1764 # 80001000 <tohost>
    800026ec:	03051513          	slli	a0,a0,0x30
    800026f0:	00073583          	ld	a1,0(a4)
    800026f4:	00168693          	addi	a3,a3,1
    800026f8:	00a7e633          	or	a2,a5,a0
    800026fc:	00058a63          	beqz	a1,80002710 <handle_trap+0x110>
    80002700:	fffff797          	auipc	a5,0xfffff
    80002704:	9407b023          	sd	zero,-1728(a5) # 80001040 <fromhost>
    80002708:	00073783          	ld	a5,0(a4)
    8000270c:	fe079ae3          	bnez	a5,80002700 <handle_trap+0x100>
    80002710:	0006c783          	lbu	a5,0(a3)
    80002714:	00c73023          	sd	a2,0(a4)
    80002718:	fc079ce3          	bnez	a5,800026f0 <handle_trap+0xf0>
    8000271c:	00300513          	li	a0,3
    80002720:	b79ff0ef          	jal	ra,80002298 <terminate>
    80002724:	00040513          	mv	a0,s0
    80002728:	995fd0ef          	jal	ra,800000bc <pop_tf>
    8000272c:	f19ff06f          	j	80002644 <handle_trap+0x44>
    80002730:	00100513          	li	a0,1
    80002734:	b65ff0ef          	jal	ra,80002298 <terminate>
    80002738:	00002517          	auipc	a0,0x2
    8000273c:	1e050513          	addi	a0,a0,480 # 80004918 <pass+0x1ac>
    80002740:	b11ff0ef          	jal	ra,80002250 <cputstring>
    80002744:	00300513          	li	a0,3
    80002748:	b51ff0ef          	jal	ra,80002298 <terminate>
    8000274c:	05042783          	lw	a5,80(s0)
    80002750:	000014b7          	lui	s1,0x1
    80002754:	00004a97          	auipc	s5,0x4
    80002758:	8aca8a93          	addi	s5,s5,-1876 # 80006000 <user_mapping>
    8000275c:	00f13423          	sd	a5,8(sp)
    80002760:	00005d17          	auipc	s10,0x5
    80002764:	8a0d0d13          	addi	s10,s10,-1888 # 80007000 <pt>
    80002768:	00040cb7          	lui	s9,0x40
    8000276c:	ffe00c37          	lui	s8,0xffe00
    80002770:	00009a17          	auipc	s4,0x9
    80002774:	890a0a13          	addi	s4,s4,-1904 # 8000b000 <freelist_tail>
    80002778:	00009b97          	auipc	s7,0x9
    8000277c:	890b8b93          	addi	s7,s7,-1904 # 8000b008 <freelist_head>
    80002780:	0003fb37          	lui	s6,0x3f
    80002784:	00c4d793          	srli	a5,s1,0xc
    80002788:	00479913          	slli	s2,a5,0x4
    8000278c:	012a8733          	add	a4,s5,s2
    80002790:	00073703          	ld	a4,0(a4)
    80002794:	08070c63          	beqz	a4,8000282c <handle_trap+0x22c>
    80002798:	60078793          	addi	a5,a5,1536
    8000279c:	00379793          	slli	a5,a5,0x3
    800027a0:	00fd07b3          	add	a5,s10,a5
    800027a4:	0007b983          	ld	s3,0(a5)
    800027a8:	0409f793          	andi	a5,s3,64
    800027ac:	0a078063          	beqz	a5,8000284c <handle_trap+0x24c>
    800027b0:	100cadf3          	csrrs	s11,sstatus,s9
    800027b4:	01848433          	add	s0,s1,s8
    800027b8:	00001637          	lui	a2,0x1
    800027bc:	00040593          	mv	a1,s0
    800027c0:	00048513          	mv	a0,s1
    800027c4:	965ff0ef          	jal	ra,80002128 <memcmp>
    800027c8:	04050463          	beqz	a0,80002810 <handle_trap+0x210>
    800027cc:	0809f993          	andi	s3,s3,128
    800027d0:	0a098063          	beqz	s3,80002870 <handle_trap+0x270>
    800027d4:	000016b7          	lui	a3,0x1
    800027d8:	00048713          	mv	a4,s1
    800027dc:	00040793          	mv	a5,s0
    800027e0:	00d486b3          	add	a3,s1,a3
    800027e4:	00073803          	ld	a6,0(a4)
    800027e8:	00873503          	ld	a0,8(a4)
    800027ec:	01073583          	ld	a1,16(a4)
    800027f0:	01873603          	ld	a2,24(a4)
    800027f4:	0107b023          	sd	a6,0(a5)
    800027f8:	00a7b423          	sd	a0,8(a5)
    800027fc:	00b7b823          	sd	a1,16(a5)
    80002800:	00c7bc23          	sd	a2,24(a5)
    80002804:	02070713          	addi	a4,a4,32
    80002808:	02078793          	addi	a5,a5,32
    8000280c:	fcd71ce3          	bne	a4,a3,800027e4 <handle_trap+0x1e4>
    80002810:	012a87b3          	add	a5,s5,s2
    80002814:	100d9073          	csrw	sstatus,s11
    80002818:	000a3703          	ld	a4,0(s4)
    8000281c:	0007b023          	sd	zero,0(a5)
    80002820:	02070063          	beqz	a4,80002840 <handle_trap+0x240>
    80002824:	00f73423          	sd	a5,8(a4)
    80002828:	00fa3023          	sd	a5,0(s4)
    8000282c:	000017b7          	lui	a5,0x1
    80002830:	00f484b3          	add	s1,s1,a5
    80002834:	f56498e3          	bne	s1,s6,80002784 <handle_trap+0x184>
    80002838:	00813503          	ld	a0,8(sp)
    8000283c:	a5dff0ef          	jal	ra,80002298 <terminate>
    80002840:	00fa3023          	sd	a5,0(s4)
    80002844:	00fbb023          	sd	a5,0(s7)
    80002848:	fe5ff06f          	j	8000282c <handle_trap+0x22c>
    8000284c:	00002517          	auipc	a0,0x2
    80002850:	05c50513          	addi	a0,a0,92 # 800048a8 <pass+0x13c>
    80002854:	9fdff0ef          	jal	ra,80002250 <cputstring>
    80002858:	00300513          	li	a0,3
    8000285c:	a3dff0ef          	jal	ra,80002298 <terminate>
    80002860:	00002517          	auipc	a0,0x2
    80002864:	0e050513          	addi	a0,a0,224 # 80004940 <pass+0x1d4>
    80002868:	9e9ff0ef          	jal	ra,80002250 <cputstring>
    8000286c:	eb1ff06f          	j	8000271c <handle_trap+0x11c>
    80002870:	00002517          	auipc	a0,0x2
    80002874:	07050513          	addi	a0,a0,112 # 800048e0 <pass+0x174>
    80002878:	9d9ff0ef          	jal	ra,80002250 <cputstring>
    8000287c:	00300513          	li	a0,3
    80002880:	a19ff0ef          	jal	ra,80002298 <terminate>

0000000080002884 <vm_boot>:
    80002884:	f14027f3          	csrr	a5,mhartid
    80002888:	1e079263          	bnez	a5,80002a6c <vm_boot+0x1e8>
    8000288c:	00006797          	auipc	a5,0x6
    80002890:	77478793          	addi	a5,a5,1908 # 80009000 <pt+0x2000>
    80002894:	ed010113          	addi	sp,sp,-304
    80002898:	00c7d793          	srli	a5,a5,0xc
    8000289c:	12813023          	sd	s0,288(sp)
    800028a0:	00007817          	auipc	a6,0x7
    800028a4:	76080813          	addi	a6,a6,1888 # 8000a000 <pt+0x3000>
    800028a8:	00050413          	mv	s0,a0
    800028ac:	00a79793          	slli	a5,a5,0xa
    800028b0:	00005517          	auipc	a0,0x5
    800028b4:	75050513          	addi	a0,a0,1872 # 80008000 <pt+0x1000>
    800028b8:	12113423          	sd	ra,296(sp)
    800028bc:	00c55693          	srli	a3,a0,0xc
    800028c0:	00c85713          	srli	a4,a6,0xc
    800028c4:	0017e793          	ori	a5,a5,1
    800028c8:	00004897          	auipc	a7,0x4
    800028cc:	73888893          	addi	a7,a7,1848 # 80007000 <pt>
    800028d0:	fff00613          	li	a2,-1
    800028d4:	fef53c23          	sd	a5,-8(a0)
    800028d8:	00a69693          	slli	a3,a3,0xa
    800028dc:	00a71713          	slli	a4,a4,0xa
    800028e0:	200007b7          	lui	a5,0x20000
    800028e4:	0016e693          	ori	a3,a3,1
    800028e8:	00176713          	ori	a4,a4,1
    800028ec:	00c8d593          	srli	a1,a7,0xc
    800028f0:	03f61313          	slli	t1,a2,0x3f
    800028f4:	0cf78793          	addi	a5,a5,207 # 200000cf <_start-0x5fffff31>
    800028f8:	fef83c23          	sd	a5,-8(a6)
    800028fc:	00d8b023          	sd	a3,0(a7)
    80002900:	00e53023          	sd	a4,0(a0)
    80002904:	0065e7b3          	or	a5,a1,t1
    80002908:	18079073          	csrw	satp,a5
    8000290c:	18002773          	csrr	a4,satp
    80002910:	1ae79663          	bne	a5,a4,80002abc <vm_boot+0x238>
    80002914:	00b65613          	srli	a2,a2,0xb
    80002918:	01f00793          	li	a5,31
    8000291c:	00000297          	auipc	t0,0x0
    80002920:	01428293          	addi	t0,t0,20 # 80002930 <vm_boot+0xac>
    80002924:	305292f3          	csrrw	t0,mtvec,t0
    80002928:	3b061073          	csrw	pmpaddr0,a2
    8000292c:	3a079073          	csrw	pmpcfg0,a5
    80002930:	30529073          	csrw	mtvec,t0
    80002934:	bff00813          	li	a6,-1025
    80002938:	01581813          	slli	a6,a6,0x15
    8000293c:	ffffe797          	auipc	a5,0xffffe
    80002940:	80878793          	addi	a5,a5,-2040 # 80000144 <trap_entry>
    80002944:	010787b3          	add	a5,a5,a6
    80002948:	10579073          	csrw	stvec,a5
    8000294c:	340027f3          	csrr	a5,mscratch
    80002950:	010787b3          	add	a5,a5,a6
    80002954:	14079073          	csrw	sscratch,a5
    80002958:	0000b7b7          	lui	a5,0xb
    8000295c:	1007879b          	addiw	a5,a5,256 # b100 <_start-0x7fff4f00>
    80002960:	30279073          	csrw	medeleg,a5
    80002964:	0001e7b7          	lui	a5,0x1e
    80002968:	6007879b          	addiw	a5,a5,1536 # 1e600 <_start-0x7ffe1a00>
    8000296c:	30079073          	csrw	mstatus,a5
    80002970:	30405073          	csrwi	mie,0
    80002974:	00004717          	auipc	a4,0x4
    80002978:	a7c70713          	addi	a4,a4,-1412 # 800063f0 <freelist_nodes>
    8000297c:	3e080793          	addi	a5,a6,992
    80002980:	010706b3          	add	a3,a4,a6
    80002984:	00f707b3          	add	a5,a4,a5
    80002988:	000808b7          	lui	a7,0x80
    8000298c:	00008617          	auipc	a2,0x8
    80002990:	66d63e23          	sd	a3,1660(a2) # 8000b008 <freelist_head>
    80002994:	00004317          	auipc	t1,0x4
    80002998:	e4c30313          	addi	t1,t1,-436 # 800067e0 <freelist_nodes+0x3f0>
    8000299c:	00008697          	auipc	a3,0x8
    800029a0:	66f6b223          	sd	a5,1636(a3) # 8000b000 <freelist_tail>
    800029a4:	03f88893          	addi	a7,a7,63 # 8003f <_start-0x7ff7ffc1>
    800029a8:	00e00793          	li	a5,14
    800029ac:	01080813          	addi	a6,a6,16
    800029b0:	0017d613          	srli	a2,a5,0x1
    800029b4:	011786b3          	add	a3,a5,a7
    800029b8:	00f647b3          	xor	a5,a2,a5
    800029bc:	010705b3          	add	a1,a4,a6
    800029c0:	00c69693          	slli	a3,a3,0xc
    800029c4:	00579793          	slli	a5,a5,0x5
    800029c8:	00d73023          	sd	a3,0(a4)
    800029cc:	00b73423          	sd	a1,8(a4)
    800029d0:	0207f793          	andi	a5,a5,32
    800029d4:	01070713          	addi	a4,a4,16
    800029d8:	00f667b3          	or	a5,a2,a5
    800029dc:	fce31ae3          	bne	t1,a4,800029b0 <vm_boot+0x12c>
    800029e0:	12000613          	li	a2,288
    800029e4:	00000593          	li	a1,0
    800029e8:	00010513          	mv	a0,sp
    800029ec:	00004797          	auipc	a5,0x4
    800029f0:	de07b623          	sd	zero,-532(a5) # 800067d8 <freelist_nodes+0x3e8>
    800029f4:	e68ff0ef          	jal	ra,8000205c <memset>
    800029f8:	800007b7          	lui	a5,0x80000
    800029fc:	00f40433          	add	s0,s0,a5
    80002a00:	10100513          	li	a0,257
    80002a04:	10813423          	sd	s0,264(sp)
    80002a08:	07600793          	li	a5,118
    80002a0c:	00002697          	auipc	a3,0x2
    80002a10:	f6468693          	addi	a3,a3,-156 # 80004970 <pass+0x204>
    80002a14:	ffffe717          	auipc	a4,0xffffe
    80002a18:	5ec70713          	addi	a4,a4,1516 # 80001000 <tohost>
    80002a1c:	03051513          	slli	a0,a0,0x30
    80002a20:	00073583          	ld	a1,0(a4)
    80002a24:	00168693          	addi	a3,a3,1
    80002a28:	00a7e633          	or	a2,a5,a0
    80002a2c:	00058a63          	beqz	a1,80002a40 <vm_boot+0x1bc>
    80002a30:	ffffe797          	auipc	a5,0xffffe
    80002a34:	6007b823          	sd	zero,1552(a5) # 80001040 <fromhost>
    80002a38:	00073783          	ld	a5,0(a4)
    80002a3c:	fe079ae3          	bnez	a5,80002a30 <vm_boot+0x1ac>
    80002a40:	0006c783          	lbu	a5,0(a3)
    80002a44:	00c73023          	sd	a2,0(a4)
    80002a48:	fc079ce3          	bnez	a5,80002a20 <vm_boot+0x19c>
    80002a4c:	00010513          	mv	a0,sp
    80002a50:	881ff0ef          	jal	ra,800022d0 <printhex>
    80002a54:	00010513          	mv	a0,sp
    80002a58:	e64fd0ef          	jal	ra,800000bc <pop_tf>
    80002a5c:	12813083          	ld	ra,296(sp)
    80002a60:	12013403          	ld	s0,288(sp)
    80002a64:	13010113          	addi	sp,sp,304
    80002a68:	00008067          	ret
    80002a6c:	00100713          	li	a4,1
    80002a70:	006367b7          	lui	a5,0x636
    80002a74:	00080637          	lui	a2,0x80
    80002a78:	3ee78793          	addi	a5,a5,1006 # 6363ee <_start-0x7f9c9c12>
    80002a7c:	ffc60613          	addi	a2,a2,-4 # 7fffc <_start-0x7ff80004>
    80002a80:	01f71513          	slli	a0,a4,0x1f
    80002a84:	03e71693          	slli	a3,a4,0x3e
    80002a88:	01c0006f          	j	80002aa4 <vm_boot+0x220>
    80002a8c:	0007202f          	amoadd.w	zero,zero,(a4)
    80002a90:	0017d713          	srli	a4,a5,0x1
    80002a94:	00e7c7b3          	xor	a5,a5,a4
    80002a98:	03e79793          	slli	a5,a5,0x3e
    80002a9c:	00d7f7b3          	and	a5,a5,a3
    80002aa0:	00e7e7b3          	or	a5,a5,a4
    80002aa4:	00c7f733          	and	a4,a5,a2
    80002aa8:	0017f593          	andi	a1,a5,1
    80002aac:	00a70733          	add	a4,a4,a0
    80002ab0:	fc059ee3          	bnez	a1,80002a8c <vm_boot+0x208>
    80002ab4:	00072003          	lw	zero,0(a4)
    80002ab8:	fd9ff06f          	j	80002a90 <vm_boot+0x20c>
    80002abc:	00002517          	auipc	a0,0x2
    80002ac0:	ec450513          	addi	a0,a0,-316 # 80004980 <pass+0x214>
    80002ac4:	f8cff0ef          	jal	ra,80002250 <cputstring>
    80002ac8:	00300513          	li	a0,3
    80002acc:	fccff0ef          	jal	ra,80002298 <terminate>

0000000080002ad0 <extra_boot>:
    80002ad0:	00008067          	ret

0000000080002ad4 <trap_filter>:
    80002ad4:	00000513          	li	a0,0
    80002ad8:	00008067          	ret

0000000080002adc <pf_filter>:
    80002adc:	00000513          	li	a0,0
    80002ae0:	00008067          	ret

0000000080002ae4 <userstart>:
    80002ae4:	00002417          	auipc	s0,0x2
    80002ae8:	51c40413          	addi	s0,s0,1308 # 80005000 <begin_signature>
    80002aec:	00100193          	li	gp,1
    80002af0:	20100313          	li	t1,513
    80002af4:	00141383          	lh	t2,1(s0)
    80002af8:	00730463          	beq	t1,t2,80002b00 <userstart+0x1c>
    80002afc:	4610106f          	j	8000475c <fail>
    80002b00:	00200193          	li	gp,2
    80002b04:	20100313          	li	t1,513
    80002b08:	00145383          	lhu	t2,1(s0)
    80002b0c:	00730463          	beq	t1,t2,80002b14 <userstart+0x30>
    80002b10:	44d0106f          	j	8000475c <fail>
    80002b14:	00300193          	li	gp,3
    80002b18:	04030337          	lui	t1,0x4030
    80002b1c:	2013031b          	addiw	t1,t1,513 # 4030201 <_start-0x7bfcfdff>
    80002b20:	00142383          	lw	t2,1(s0)
    80002b24:	00730463          	beq	t1,t2,80002b2c <userstart+0x48>
    80002b28:	4350106f          	j	8000475c <fail>
    80002b2c:	00400193          	li	gp,4
    80002b30:	05040337          	lui	t1,0x5040
    80002b34:	3023031b          	addiw	t1,t1,770 # 5040302 <_start-0x7afbfcfe>
    80002b38:	00242383          	lw	t2,2(s0)
    80002b3c:	00730463          	beq	t1,t2,80002b44 <userstart+0x60>
    80002b40:	41d0106f          	j	8000475c <fail>
    80002b44:	00500193          	li	gp,5
    80002b48:	06050337          	lui	t1,0x6050
    80002b4c:	4033031b          	addiw	t1,t1,1027 # 6050403 <_start-0x79fafbfd>
    80002b50:	00342383          	lw	t2,3(s0)
    80002b54:	00730463          	beq	t1,t2,80002b5c <userstart+0x78>
    80002b58:	4050106f          	j	8000475c <fail>
    80002b5c:	00600193          	li	gp,6
    80002b60:	04030337          	lui	t1,0x4030
    80002b64:	2013031b          	addiw	t1,t1,513 # 4030201 <_start-0x7bfcfdff>
    80002b68:	00146383          	lwu	t2,1(s0)
    80002b6c:	00730463          	beq	t1,t2,80002b74 <userstart+0x90>
    80002b70:	3ed0106f          	j	8000475c <fail>
    80002b74:	00700193          	li	gp,7
    80002b78:	05040337          	lui	t1,0x5040
    80002b7c:	3023031b          	addiw	t1,t1,770 # 5040302 <_start-0x7afbfcfe>
    80002b80:	00246383          	lwu	t2,2(s0)
    80002b84:	00730463          	beq	t1,t2,80002b8c <userstart+0xa8>
    80002b88:	3d50106f          	j	8000475c <fail>
    80002b8c:	00800193          	li	gp,8
    80002b90:	06050337          	lui	t1,0x6050
    80002b94:	4033031b          	addiw	t1,t1,1027 # 6050403 <_start-0x79fafbfd>
    80002b98:	00346383          	lwu	t2,3(s0)
    80002b9c:	00730463          	beq	t1,t2,80002ba4 <userstart+0xc0>
    80002ba0:	3bd0106f          	j	8000475c <fail>
    80002ba4:	00900193          	li	gp,9
    80002ba8:	08070337          	lui	t1,0x8070
    80002bac:	6053031b          	addiw	t1,t1,1541 # 8070605 <_start-0x77f8f9fb>
    80002bb0:	01031313          	slli	t1,t1,0x10
    80002bb4:	40330313          	addi	t1,t1,1027
    80002bb8:	01031313          	slli	t1,t1,0x10
    80002bbc:	20130313          	addi	t1,t1,513
    80002bc0:	00143383          	ld	t2,1(s0)
    80002bc4:	00730463          	beq	t1,t2,80002bcc <userstart+0xe8>
    80002bc8:	3950106f          	j	8000475c <fail>
    80002bcc:	00a00193          	li	gp,10
    80002bd0:	04840337          	lui	t1,0x4840
    80002bd4:	3833031b          	addiw	t1,t1,899 # 4840383 <_start-0x7b7bfc7d>
    80002bd8:	00f31313          	slli	t1,t1,0xf
    80002bdc:	14130313          	addi	t1,t1,321
    80002be0:	01231313          	slli	t1,t1,0x12
    80002be4:	30230313          	addi	t1,t1,770
    80002be8:	00243383          	ld	t2,2(s0)
    80002bec:	00730463          	beq	t1,t2,80002bf4 <userstart+0x110>
    80002bf0:	36d0106f          	j	8000475c <fail>
    80002bf4:	00b00193          	li	gp,11
    80002bf8:	0a091337          	lui	t1,0xa091
    80002bfc:	8073031b          	addiw	t1,t1,-2041 # a090807 <_start-0x75f6f7f9>
    80002c00:	01031313          	slli	t1,t1,0x10
    80002c04:	60530313          	addi	t1,t1,1541
    80002c08:	01031313          	slli	t1,t1,0x10
    80002c0c:	40330313          	addi	t1,t1,1027
    80002c10:	00343383          	ld	t2,3(s0)
    80002c14:	00730463          	beq	t1,t2,80002c1c <userstart+0x138>
    80002c18:	3450106f          	j	8000475c <fail>
    80002c1c:	00c00193          	li	gp,12
    80002c20:	01614337          	lui	t1,0x1614
    80002c24:	1213031b          	addiw	t1,t1,289 # 1614121 <_start-0x7e9ebedf>
    80002c28:	01231313          	slli	t1,t1,0x12
    80002c2c:	38330313          	addi	t1,t1,899
    80002c30:	01131313          	slli	t1,t1,0x11
    80002c34:	50430313          	addi	t1,t1,1284
    80002c38:	00443383          	ld	t2,4(s0)
    80002c3c:	00730463          	beq	t1,t2,80002c44 <userstart+0x160>
    80002c40:	31d0106f          	j	8000475c <fail>
    80002c44:	00d00193          	li	gp,13
    80002c48:	00060337          	lui	t1,0x60
    80002c4c:	5853031b          	addiw	t1,t1,1413 # 60585 <_start-0x7ff9fa7b>
    80002c50:	00d31313          	slli	t1,t1,0xd
    80002c54:	09130313          	addi	t1,t1,145
    80002c58:	00c31313          	slli	t1,t1,0xc
    80002c5c:	80730313          	addi	t1,t1,-2041
    80002c60:	01031313          	slli	t1,t1,0x10
    80002c64:	60530313          	addi	t1,t1,1541
    80002c68:	00543383          	ld	t2,5(s0)
    80002c6c:	00730463          	beq	t1,t2,80002c74 <userstart+0x190>
    80002c70:	2ed0106f          	j	8000475c <fail>
    80002c74:	00e00193          	li	gp,14
    80002c78:	06860337          	lui	t1,0x6860
    80002c7c:	5853031b          	addiw	t1,t1,1413 # 6860585 <_start-0x7979fa7b>
    80002c80:	00e31313          	slli	t1,t1,0xe
    80002c84:	12130313          	addi	t1,t1,289
    80002c88:	01331313          	slli	t1,t1,0x13
    80002c8c:	70630313          	addi	t1,t1,1798
    80002c90:	00643383          	ld	t2,6(s0)
    80002c94:	00730463          	beq	t1,t2,80002c9c <userstart+0x1b8>
    80002c98:	2c50106f          	j	8000475c <fail>
    80002c9c:	00f00193          	li	gp,15
    80002ca0:	00038337          	lui	t1,0x38
    80002ca4:	3433031b          	addiw	t1,t1,835 # 38343 <_start-0x7ffc7cbd>
    80002ca8:	01131313          	slli	t1,t1,0x11
    80002cac:	58530313          	addi	t1,t1,1413
    80002cb0:	00d31313          	slli	t1,t1,0xd
    80002cb4:	09130313          	addi	t1,t1,145
    80002cb8:	00c31313          	slli	t1,t1,0xc
    80002cbc:	80730313          	addi	t1,t1,-2041
    80002cc0:	00743383          	ld	t2,7(s0)
    80002cc4:	00730463          	beq	t1,t2,80002ccc <userstart+0x1e8>
    80002cc8:	2950106f          	j	8000475c <fail>
    80002ccc:	01000193          	li	gp,16
    80002cd0:	00002337          	lui	t1,0x2
    80002cd4:	01f3031b          	addiw	t1,t1,31 # 201f <_start-0x7fffdfe1>
    80002cd8:	01f41383          	lh	t2,31(s0)
    80002cdc:	00730463          	beq	t1,t2,80002ce4 <userstart+0x200>
    80002ce0:	27d0106f          	j	8000475c <fail>
    80002ce4:	01100193          	li	gp,17
    80002ce8:	00002337          	lui	t1,0x2
    80002cec:	01f3031b          	addiw	t1,t1,31 # 201f <_start-0x7fffdfe1>
    80002cf0:	01f45383          	lhu	t2,31(s0)
    80002cf4:	00730463          	beq	t1,t2,80002cfc <userstart+0x218>
    80002cf8:	2650106f          	j	8000475c <fail>
    80002cfc:	01200193          	li	gp,18
    80002d00:	201f2337          	lui	t1,0x201f2
    80002d04:	e1d3031b          	addiw	t1,t1,-483 # 201f1e1d <_start-0x5fe0e1e3>
    80002d08:	01d42383          	lw	t2,29(s0)
    80002d0c:	00730463          	beq	t1,t2,80002d14 <userstart+0x230>
    80002d10:	24d0106f          	j	8000475c <fail>
    80002d14:	01300193          	li	gp,19
    80002d18:	21202337          	lui	t1,0x21202
    80002d1c:	f1e3031b          	addiw	t1,t1,-226 # 21201f1e <_start-0x5edfe0e2>
    80002d20:	01e42383          	lw	t2,30(s0)
    80002d24:	00730463          	beq	t1,t2,80002d2c <userstart+0x248>
    80002d28:	2350106f          	j	8000475c <fail>
    80002d2c:	01400193          	li	gp,20
    80002d30:	22212337          	lui	t1,0x22212
    80002d34:	01f3031b          	addiw	t1,t1,31 # 2221201f <_start-0x5ddedfe1>
    80002d38:	01f42383          	lw	t2,31(s0)
    80002d3c:	00730463          	beq	t1,t2,80002d44 <userstart+0x260>
    80002d40:	21d0106f          	j	8000475c <fail>
    80002d44:	01500193          	li	gp,21
    80002d48:	201f2337          	lui	t1,0x201f2
    80002d4c:	e1d3031b          	addiw	t1,t1,-483 # 201f1e1d <_start-0x5fe0e1e3>
    80002d50:	01d46383          	lwu	t2,29(s0)
    80002d54:	00730463          	beq	t1,t2,80002d5c <userstart+0x278>
    80002d58:	2050106f          	j	8000475c <fail>
    80002d5c:	01600193          	li	gp,22
    80002d60:	21202337          	lui	t1,0x21202
    80002d64:	f1e3031b          	addiw	t1,t1,-226 # 21201f1e <_start-0x5edfe0e2>
    80002d68:	01e46383          	lwu	t2,30(s0)
    80002d6c:	00730463          	beq	t1,t2,80002d74 <userstart+0x290>
    80002d70:	1ed0106f          	j	8000475c <fail>
    80002d74:	01700193          	li	gp,23
    80002d78:	22212337          	lui	t1,0x22212
    80002d7c:	01f3031b          	addiw	t1,t1,31 # 2221201f <_start-0x5ddedfe1>
    80002d80:	01f46383          	lwu	t2,31(s0)
    80002d84:	00730463          	beq	t1,t2,80002d8c <userstart+0x2a8>
    80002d88:	1d50106f          	j	8000475c <fail>
    80002d8c:	01800193          	li	gp,24
    80002d90:	00101337          	lui	t1,0x101
    80002d94:	f8f3031b          	addiw	t1,t1,-113 # 100f8f <_start-0x7feff071>
    80002d98:	00f31313          	slli	t1,t1,0xf
    80002d9c:	74730313          	addi	t1,t1,1863
    80002da0:	00d31313          	slli	t1,t1,0xd
    80002da4:	0d930313          	addi	t1,t1,217
    80002da8:	00d31313          	slli	t1,t1,0xd
    80002dac:	a1930313          	addi	t1,t1,-1511
    80002db0:	01943383          	ld	t2,25(s0)
    80002db4:	00730463          	beq	t1,t2,80002dbc <userstart+0x2d8>
    80002db8:	1a50106f          	j	8000475c <fail>
    80002dbc:	01900193          	li	gp,25
    80002dc0:	01090337          	lui	t1,0x1090
    80002dc4:	0f93031b          	addiw	t1,t1,249 # 10900f9 <_start-0x7ef6ff07>
    80002dc8:	00c31313          	slli	t1,t1,0xc
    80002dcc:	f0f30313          	addi	t1,t1,-241
    80002dd0:	00c31313          	slli	t1,t1,0xc
    80002dd4:	8e130313          	addi	t1,t1,-1823
    80002dd8:	00d31313          	slli	t1,t1,0xd
    80002ddc:	b1a30313          	addi	t1,t1,-1254
    80002de0:	01a43383          	ld	t2,26(s0)
    80002de4:	00730463          	beq	t1,t2,80002dec <userstart+0x308>
    80002de8:	1750106f          	j	8000475c <fail>
    80002dec:	01a00193          	li	gp,26
    80002df0:	01111337          	lui	t1,0x1111
    80002df4:	9013031b          	addiw	t1,t1,-1791 # 1110901 <_start-0x7eeef6ff>
    80002df8:	00c31313          	slli	t1,t1,0xc
    80002dfc:	f8f30313          	addi	t1,t1,-113
    80002e00:	00c31313          	slli	t1,t1,0xc
    80002e04:	0e930313          	addi	t1,t1,233
    80002e08:	00d31313          	slli	t1,t1,0xd
    80002e0c:	c1b30313          	addi	t1,t1,-997
    80002e10:	01b43383          	ld	t2,27(s0)
    80002e14:	00730463          	beq	t1,t2,80002e1c <userstart+0x338>
    80002e18:	1450106f          	j	8000475c <fail>
    80002e1c:	01b00193          	li	gp,27
    80002e20:	00119337          	lui	t1,0x119
    80002e24:	1113031b          	addiw	t1,t1,273 # 119111 <_start-0x7fee6eef>
    80002e28:	00c31313          	slli	t1,t1,0xc
    80002e2c:	90130313          	addi	t1,t1,-1791
    80002e30:	01031313          	slli	t1,t1,0x10
    80002e34:	8f130313          	addi	t1,t1,-1807
    80002e38:	00d31313          	slli	t1,t1,0xd
    80002e3c:	d1c30313          	addi	t1,t1,-740
    80002e40:	01c43383          	ld	t2,28(s0)
    80002e44:	00730463          	beq	t1,t2,80002e4c <userstart+0x368>
    80002e48:	1150106f          	j	8000475c <fail>
    80002e4c:	01c00193          	li	gp,28
    80002e50:	00121337          	lui	t1,0x121
    80002e54:	1913031b          	addiw	t1,t1,401 # 121191 <_start-0x7fedee6f>
    80002e58:	00c31313          	slli	t1,t1,0xc
    80002e5c:	10930313          	addi	t1,t1,265
    80002e60:	01031313          	slli	t1,t1,0x10
    80002e64:	0f930313          	addi	t1,t1,249
    80002e68:	00d31313          	slli	t1,t1,0xd
    80002e6c:	e1d30313          	addi	t1,t1,-483
    80002e70:	01d43383          	ld	t2,29(s0)
    80002e74:	00730463          	beq	t1,t2,80002e7c <userstart+0x398>
    80002e78:	0e50106f          	j	8000475c <fail>
    80002e7c:	01d00193          	li	gp,29
    80002e80:	01292337          	lui	t1,0x1292
    80002e84:	1193031b          	addiw	t1,t1,281 # 1292119 <_start-0x7ed6dee7>
    80002e88:	00c31313          	slli	t1,t1,0xc
    80002e8c:	11130313          	addi	t1,t1,273
    80002e90:	00c31313          	slli	t1,t1,0xc
    80002e94:	90130313          	addi	t1,t1,-1791
    80002e98:	00d31313          	slli	t1,t1,0xd
    80002e9c:	f1e30313          	addi	t1,t1,-226
    80002ea0:	01e43383          	ld	t2,30(s0)
    80002ea4:	00730463          	beq	t1,t2,80002eac <userstart+0x3c8>
    80002ea8:	0b50106f          	j	8000475c <fail>
    80002eac:	01e00193          	li	gp,30
    80002eb0:	01313337          	lui	t1,0x1313
    80002eb4:	9213031b          	addiw	t1,t1,-1759 # 1312921 <_start-0x7eced6df>
    80002eb8:	00c31313          	slli	t1,t1,0xc
    80002ebc:	19130313          	addi	t1,t1,401
    80002ec0:	00c31313          	slli	t1,t1,0xc
    80002ec4:	10930313          	addi	t1,t1,265
    80002ec8:	00d31313          	slli	t1,t1,0xd
    80002ecc:	01f30313          	addi	t1,t1,31
    80002ed0:	01f43383          	ld	t2,31(s0)
    80002ed4:	00730463          	beq	t1,t2,80002edc <userstart+0x3f8>
    80002ed8:	0850106f          	j	8000475c <fail>
    80002edc:	01f00193          	li	gp,31
    80002ee0:	00004337          	lui	t1,0x4
    80002ee4:	03f3031b          	addiw	t1,t1,63 # 403f <_start-0x7fffbfc1>
    80002ee8:	03f41383          	lh	t2,63(s0)
    80002eec:	00730463          	beq	t1,t2,80002ef4 <userstart+0x410>
    80002ef0:	06d0106f          	j	8000475c <fail>
    80002ef4:	02000193          	li	gp,32
    80002ef8:	00004337          	lui	t1,0x4
    80002efc:	03f3031b          	addiw	t1,t1,63 # 403f <_start-0x7fffbfc1>
    80002f00:	03f45383          	lhu	t2,63(s0)
    80002f04:	00730463          	beq	t1,t2,80002f0c <userstart+0x428>
    80002f08:	0550106f          	j	8000475c <fail>
    80002f0c:	02100193          	li	gp,33
    80002f10:	403f4337          	lui	t1,0x403f4
    80002f14:	e3d3031b          	addiw	t1,t1,-451 # 403f3e3d <_start-0x3fc0c1c3>
    80002f18:	03d42383          	lw	t2,61(s0)
    80002f1c:	00730463          	beq	t1,t2,80002f24 <userstart+0x440>
    80002f20:	03d0106f          	j	8000475c <fail>
    80002f24:	02200193          	li	gp,34
    80002f28:	41404337          	lui	t1,0x41404
    80002f2c:	f3e3031b          	addiw	t1,t1,-194 # 41403f3e <_start-0x3ebfc0c2>
    80002f30:	03e42383          	lw	t2,62(s0)
    80002f34:	00730463          	beq	t1,t2,80002f3c <userstart+0x458>
    80002f38:	0250106f          	j	8000475c <fail>
    80002f3c:	02300193          	li	gp,35
    80002f40:	42414337          	lui	t1,0x42414
    80002f44:	03f3031b          	addiw	t1,t1,63 # 4241403f <_start-0x3dbebfc1>
    80002f48:	03f42383          	lw	t2,63(s0)
    80002f4c:	00730463          	beq	t1,t2,80002f54 <userstart+0x470>
    80002f50:	00d0106f          	j	8000475c <fail>
    80002f54:	02400193          	li	gp,36
    80002f58:	403f4337          	lui	t1,0x403f4
    80002f5c:	e3d3031b          	addiw	t1,t1,-451 # 403f3e3d <_start-0x3fc0c1c3>
    80002f60:	03d46383          	lwu	t2,61(s0)
    80002f64:	00730463          	beq	t1,t2,80002f6c <userstart+0x488>
    80002f68:	7f40106f          	j	8000475c <fail>
    80002f6c:	02500193          	li	gp,37
    80002f70:	41404337          	lui	t1,0x41404
    80002f74:	f3e3031b          	addiw	t1,t1,-194 # 41403f3e <_start-0x3ebfc0c2>
    80002f78:	03e46383          	lwu	t2,62(s0)
    80002f7c:	00730463          	beq	t1,t2,80002f84 <userstart+0x4a0>
    80002f80:	7dc0106f          	j	8000475c <fail>
    80002f84:	02600193          	li	gp,38
    80002f88:	42414337          	lui	t1,0x42414
    80002f8c:	03f3031b          	addiw	t1,t1,63 # 4241403f <_start-0x3dbebfc1>
    80002f90:	03f46383          	lwu	t2,63(s0)
    80002f94:	00730463          	beq	t1,t2,80002f9c <userstart+0x4b8>
    80002f98:	7c40106f          	j	8000475c <fail>
    80002f9c:	02700193          	li	gp,39
    80002fa0:	01010337          	lui	t1,0x1010
    80002fa4:	cf93031b          	addiw	t1,t1,-775 # 100fcf9 <_start-0x7eff0307>
    80002fa8:	00c31313          	slli	t1,t1,0xc
    80002fac:	f4f30313          	addi	t1,t1,-177
    80002fb0:	00c31313          	slli	t1,t1,0xc
    80002fb4:	0ed30313          	addi	t1,t1,237
    80002fb8:	00e31313          	slli	t1,t1,0xe
    80002fbc:	a3930313          	addi	t1,t1,-1479
    80002fc0:	03943383          	ld	t2,57(s0)
    80002fc4:	00730463          	beq	t1,t2,80002fcc <userstart+0x4e8>
    80002fc8:	7940106f          	j	8000475c <fail>
    80002fcc:	02800193          	li	gp,40
    80002fd0:	01050337          	lui	t1,0x1050
    80002fd4:	0fd3031b          	addiw	t1,t1,253 # 10500fd <_start-0x7efaff03>
    80002fd8:	00c31313          	slli	t1,t1,0xc
    80002fdc:	f8f30313          	addi	t1,t1,-113
    80002fe0:	00c31313          	slli	t1,t1,0xc
    80002fe4:	4f130313          	addi	t1,t1,1265
    80002fe8:	00e31313          	slli	t1,t1,0xe
    80002fec:	b3a30313          	addi	t1,t1,-1222
    80002ff0:	03a43383          	ld	t2,58(s0)
    80002ff4:	00730463          	beq	t1,t2,80002ffc <userstart+0x518>
    80002ff8:	7640106f          	j	8000475c <fail>
    80002ffc:	02900193          	li	gp,41
    80003000:	00011337          	lui	t1,0x11
    80003004:	9053031b          	addiw	t1,t1,-1787 # 10905 <_start-0x7ffef6fb>
    80003008:	01031313          	slli	t1,t1,0x10
    8000300c:	0fd30313          	addi	t1,t1,253
    80003010:	01031313          	slli	t1,t1,0x10
    80003014:	8f530313          	addi	t1,t1,-1803
    80003018:	00e31313          	slli	t1,t1,0xe
    8000301c:	c3b30313          	addi	t1,t1,-965
    80003020:	03b43383          	ld	t2,59(s0)
    80003024:	00730463          	beq	t1,t2,8000302c <userstart+0x548>
    80003028:	7340106f          	j	8000475c <fail>
    8000302c:	02a00193          	li	gp,42
    80003030:	00011337          	lui	t1,0x11
    80003034:	d093031b          	addiw	t1,t1,-759 # 10d09 <_start-0x7ffef2f7>
    80003038:	01031313          	slli	t1,t1,0x10
    8000303c:	50130313          	addi	t1,t1,1281
    80003040:	01031313          	slli	t1,t1,0x10
    80003044:	cf930313          	addi	t1,t1,-775
    80003048:	00e31313          	slli	t1,t1,0xe
    8000304c:	d3c30313          	addi	t1,t1,-708
    80003050:	03c43383          	ld	t2,60(s0)
    80003054:	00730463          	beq	t1,t2,8000305c <userstart+0x578>
    80003058:	7040106f          	j	8000475c <fail>
    8000305c:	02b00193          	li	gp,43
    80003060:	00111337          	lui	t1,0x111
    80003064:	0d13031b          	addiw	t1,t1,209 # 1110d1 <_start-0x7feeef2f>
    80003068:	00c31313          	slli	t1,t1,0xc
    8000306c:	90530313          	addi	t1,t1,-1787
    80003070:	01031313          	slli	t1,t1,0x10
    80003074:	0fd30313          	addi	t1,t1,253
    80003078:	00e31313          	slli	t1,t1,0xe
    8000307c:	e3d30313          	addi	t1,t1,-451
    80003080:	03d43383          	ld	t2,61(s0)
    80003084:	00730463          	beq	t1,t2,8000308c <userstart+0x5a8>
    80003088:	6d40106f          	j	8000475c <fail>
    8000308c:	02c00193          	li	gp,44
    80003090:	00115337          	lui	t1,0x115
    80003094:	1113031b          	addiw	t1,t1,273 # 115111 <_start-0x7feeaeef>
    80003098:	00c31313          	slli	t1,t1,0xc
    8000309c:	d0930313          	addi	t1,t1,-759
    800030a0:	01031313          	slli	t1,t1,0x10
    800030a4:	50130313          	addi	t1,t1,1281
    800030a8:	00e31313          	slli	t1,t1,0xe
    800030ac:	f3e30313          	addi	t1,t1,-194
    800030b0:	03e43383          	ld	t2,62(s0)
    800030b4:	00730463          	beq	t1,t2,800030bc <userstart+0x5d8>
    800030b8:	6a40106f          	j	8000475c <fail>
    800030bc:	02d00193          	li	gp,45
    800030c0:	01191337          	lui	t1,0x1191
    800030c4:	5113031b          	addiw	t1,t1,1297 # 1191511 <_start-0x7ee6eaef>
    800030c8:	00c31313          	slli	t1,t1,0xc
    800030cc:	0d130313          	addi	t1,t1,209
    800030d0:	00c31313          	slli	t1,t1,0xc
    800030d4:	90530313          	addi	t1,t1,-1787
    800030d8:	00e31313          	slli	t1,t1,0xe
    800030dc:	03f30313          	addi	t1,t1,63
    800030e0:	03f43383          	ld	t2,63(s0)
    800030e4:	00730463          	beq	t1,t2,800030ec <userstart+0x608>
    800030e8:	6740106f          	j	8000475c <fail>
    800030ec:	02e00193          	li	gp,46
    800030f0:	ffff8337          	lui	t1,0xffff8
    800030f4:	1803031b          	addiw	t1,t1,384 # ffffffffffff8180 <freelist_head+0xffffffff7ffed178>
    800030f8:	006410a3          	sh	t1,1(s0)
    800030fc:	00141383          	lh	t2,1(s0)
    80003100:	00730463          	beq	t1,t2,80003108 <userstart+0x624>
    80003104:	6580106f          	j	8000475c <fail>
    80003108:	02f00193          	li	gp,47
    8000310c:	00008337          	lui	t1,0x8
    80003110:	3823031b          	addiw	t1,t1,898 # 8382 <_start-0x7fff7c7e>
    80003114:	006410a3          	sh	t1,1(s0)
    80003118:	00145383          	lhu	t2,1(s0)
    8000311c:	00730463          	beq	t1,t2,80003124 <userstart+0x640>
    80003120:	63c0106f          	j	8000475c <fail>
    80003124:	03000193          	li	gp,48
    80003128:	87868337          	lui	t1,0x87868
    8000312c:	5843031b          	addiw	t1,t1,1412 # ffffffff87868584 <freelist_head+0xffffffff0785d57c>
    80003130:	006420a3          	sw	t1,1(s0)
    80003134:	00142383          	lw	t2,1(s0)
    80003138:	00730463          	beq	t1,t2,80003140 <userstart+0x65c>
    8000313c:	6200106f          	j	8000475c <fail>
    80003140:	03100193          	li	gp,49
    80003144:	8b8a9337          	lui	t1,0x8b8a9
    80003148:	9883031b          	addiw	t1,t1,-1656 # ffffffff8b8a8988 <freelist_head+0xffffffff0b89d980>
    8000314c:	00642123          	sw	t1,2(s0)
    80003150:	00242383          	lw	t2,2(s0)
    80003154:	00730463          	beq	t1,t2,8000315c <userstart+0x678>
    80003158:	6040106f          	j	8000475c <fail>
    8000315c:	03200193          	li	gp,50
    80003160:	8f8e9337          	lui	t1,0x8f8e9
    80003164:	d8c3031b          	addiw	t1,t1,-628 # ffffffff8f8e8d8c <freelist_head+0xffffffff0f8ddd84>
    80003168:	006421a3          	sw	t1,3(s0)
    8000316c:	00342383          	lw	t2,3(s0)
    80003170:	00730463          	beq	t1,t2,80003178 <userstart+0x694>
    80003174:	5e80106f          	j	8000475c <fail>
    80003178:	03300193          	li	gp,51
    8000317c:	00094337          	lui	t1,0x94
    80003180:	9293031b          	addiw	t1,t1,-1751 # 93929 <_start-0x7ff6c6d7>
    80003184:	00c31313          	slli	t1,t1,0xc
    80003188:	19030313          	addi	t1,t1,400
    8000318c:	006420a3          	sw	t1,1(s0)
    80003190:	00146383          	lwu	t2,1(s0)
    80003194:	00730463          	beq	t1,t2,8000319c <userstart+0x6b8>
    80003198:	5c40106f          	j	8000475c <fail>
    8000319c:	03400193          	li	gp,52
    800031a0:	00098337          	lui	t1,0x98
    800031a4:	9693031b          	addiw	t1,t1,-1687 # 97969 <_start-0x7ff68697>
    800031a8:	00c31313          	slli	t1,t1,0xc
    800031ac:	59430313          	addi	t1,t1,1428
    800031b0:	00642123          	sw	t1,2(s0)
    800031b4:	00246383          	lwu	t2,2(s0)
    800031b8:	00730463          	beq	t1,t2,800031c0 <userstart+0x6dc>
    800031bc:	5a00106f          	j	8000475c <fail>
    800031c0:	03500193          	li	gp,53
    800031c4:	0004e337          	lui	t1,0x4e
    800031c8:	cd53031b          	addiw	t1,t1,-811 # 4dcd5 <_start-0x7ffb232b>
    800031cc:	00d31313          	slli	t1,t1,0xd
    800031d0:	99830313          	addi	t1,t1,-1640
    800031d4:	006421a3          	sw	t1,3(s0)
    800031d8:	00346383          	lwu	t2,3(s0)
    800031dc:	00730463          	beq	t1,t2,800031e4 <userstart+0x700>
    800031e0:	57c0106f          	j	8000475c <fail>
    800031e4:	03600193          	li	gp,54
    800031e8:	ffd1d337          	lui	t1,0xffd1d
    800031ec:	1513031b          	addiw	t1,t1,337 # ffffffffffd1d151 <freelist_head+0xffffffff7fd12149>
    800031f0:	00c31313          	slli	t1,t1,0xc
    800031f4:	d0530313          	addi	t1,t1,-763
    800031f8:	01031313          	slli	t1,t1,0x10
    800031fc:	cf530313          	addi	t1,t1,-779
    80003200:	00d31313          	slli	t1,t1,0xd
    80003204:	d9c30313          	addi	t1,t1,-612
    80003208:	006430a3          	sd	t1,1(s0)
    8000320c:	00143383          	ld	t2,1(s0)
    80003210:	00730463          	beq	t1,t2,80003218 <userstart+0x734>
    80003214:	5480106f          	j	8000475c <fail>
    80003218:	03700193          	li	gp,55
    8000321c:	ff575337          	lui	t1,0xff575
    80003220:	5533031b          	addiw	t1,t1,1363 # ffffffffff575553 <freelist_head+0xffffffff7f56a54b>
    80003224:	00c31313          	slli	t1,t1,0xc
    80003228:	51530313          	addi	t1,t1,1301
    8000322c:	00e31313          	slli	t1,t1,0xe
    80003230:	d3530313          	addi	t1,t1,-715
    80003234:	00d31313          	slli	t1,t1,0xd
    80003238:	5a430313          	addi	t1,t1,1444
    8000323c:	00643123          	sd	t1,2(s0)
    80003240:	00243383          	ld	t2,2(s0)
    80003244:	00730463          	beq	t1,t2,8000324c <userstart+0x768>
    80003248:	5140106f          	j	8000475c <fail>
    8000324c:	03800193          	li	gp,56
    80003250:	ffd9e337          	lui	t1,0xffd9e
    80003254:	9593031b          	addiw	t1,t1,-1703 # ffffffffffd9d959 <freelist_head+0xffffffff7fd92951>
    80003258:	00d31313          	slli	t1,t1,0xd
    8000325c:	b0b30313          	addi	t1,t1,-1269
    80003260:	01031313          	slli	t1,t1,0x10
    80003264:	aeb30313          	addi	t1,t1,-1301
    80003268:	00c31313          	slli	t1,t1,0xc
    8000326c:	dac30313          	addi	t1,t1,-596
    80003270:	006431a3          	sd	t1,3(s0)
    80003274:	00343383          	ld	t2,3(s0)
    80003278:	00730463          	beq	t1,t2,80003280 <userstart+0x79c>
    8000327c:	4e00106f          	j	8000475c <fail>
    80003280:	03900193          	li	gp,57
    80003284:	ff777337          	lui	t1,0xff777
    80003288:	5733031b          	addiw	t1,t1,1395 # ffffffffff777573 <freelist_head+0xffffffff7f76c56b>
    8000328c:	00c31313          	slli	t1,t1,0xc
    80003290:	71730313          	addi	t1,t1,1815
    80003294:	00f31313          	slli	t1,t1,0xf
    80003298:	b6b30313          	addi	t1,t1,-1173
    8000329c:	00c31313          	slli	t1,t1,0xc
    800032a0:	5b430313          	addi	t1,t1,1460
    800032a4:	00643223          	sd	t1,4(s0)
    800032a8:	00443383          	ld	t2,4(s0)
    800032ac:	00730463          	beq	t1,t2,800032b4 <userstart+0x7d0>
    800032b0:	4ac0106f          	j	8000475c <fail>
    800032b4:	03a00193          	li	gp,58
    800032b8:	ffff1337          	lui	t1,0xffff1
    800032bc:	f0b3031b          	addiw	t1,t1,-245 # ffffffffffff0f0b <freelist_head+0xffffffff7ffe5f03>
    800032c0:	01031313          	slli	t1,t1,0x10
    800032c4:	70330313          	addi	t1,t1,1795
    800032c8:	01031313          	slli	t1,t1,0x10
    800032cc:	efb30313          	addi	t1,t1,-261
    800032d0:	00e31313          	slli	t1,t1,0xe
    800032d4:	dbc30313          	addi	t1,t1,-580
    800032d8:	006432a3          	sd	t1,5(s0)
    800032dc:	00543383          	ld	t2,5(s0)
    800032e0:	00730463          	beq	t1,t2,800032e8 <userstart+0x804>
    800032e4:	4780106f          	j	8000475c <fail>
    800032e8:	03b00193          	li	gp,59
    800032ec:	ffe5e337          	lui	t1,0xffe5e
    800032f0:	5653031b          	addiw	t1,t1,1381 # ffffffffffe5e565 <freelist_head+0xffffffff7fe5355d>
    800032f4:	00e31313          	slli	t1,t1,0xe
    800032f8:	91930313          	addi	t1,t1,-1767
    800032fc:	00d31313          	slli	t1,t1,0xd
    80003300:	f1b30313          	addi	t1,t1,-229
    80003304:	00e31313          	slli	t1,t1,0xe
    80003308:	5c430313          	addi	t1,t1,1476
    8000330c:	00643323          	sd	t1,6(s0)
    80003310:	00643383          	ld	t2,6(s0)
    80003314:	00730463          	beq	t1,t2,8000331c <userstart+0x838>
    80003318:	4440106f          	j	8000475c <fail>
    8000331c:	03c00193          	li	gp,60
    80003320:	ffe9f337          	lui	t1,0xffe9f
    80003324:	9693031b          	addiw	t1,t1,-1687 # ffffffffffe9e969 <freelist_head+0xffffffff7fe93961>
    80003328:	00d31313          	slli	t1,t1,0xd
    8000332c:	d0d30313          	addi	t1,t1,-755
    80003330:	01031313          	slli	t1,t1,0x10
    80003334:	ced30313          	addi	t1,t1,-787
    80003338:	00c31313          	slli	t1,t1,0xc
    8000333c:	dcc30313          	addi	t1,t1,-564
    80003340:	006433a3          	sd	t1,7(s0)
    80003344:	00743383          	ld	t2,7(s0)
    80003348:	00730463          	beq	t1,t2,80003350 <userstart+0x86c>
    8000334c:	4100106f          	j	8000475c <fail>
    80003350:	03d00193          	li	gp,61
    80003354:	ffffd337          	lui	t1,0xffffd
    80003358:	5d43031b          	addiw	t1,t1,1492 # ffffffffffffd5d4 <freelist_head+0xffffffff7fff25cc>
    8000335c:	00641fa3          	sh	t1,31(s0)
    80003360:	01f41383          	lh	t2,31(s0)
    80003364:	00730463          	beq	t1,t2,8000336c <userstart+0x888>
    80003368:	3f40106f          	j	8000475c <fail>
    8000336c:	03e00193          	li	gp,62
    80003370:	0000d337          	lui	t1,0xd
    80003374:	7d63031b          	addiw	t1,t1,2006 # d7d6 <_start-0x7fff282a>
    80003378:	00641fa3          	sh	t1,31(s0)
    8000337c:	01f45383          	lhu	t2,31(s0)
    80003380:	00730463          	beq	t1,t2,80003388 <userstart+0x8a4>
    80003384:	3d80106f          	j	8000475c <fail>
    80003388:	03f00193          	li	gp,63
    8000338c:	dbdae337          	lui	t1,0xdbdae
    80003390:	9d83031b          	addiw	t1,t1,-1576 # ffffffffdbdad9d8 <freelist_head+0xffffffff5bda29d0>
    80003394:	00642ea3          	sw	t1,29(s0)
    80003398:	01d42383          	lw	t2,29(s0)
    8000339c:	00730463          	beq	t1,t2,800033a4 <userstart+0x8c0>
    800033a0:	3bc0106f          	j	8000475c <fail>
    800033a4:	04000193          	li	gp,64
    800033a8:	dfdee337          	lui	t1,0xdfdee
    800033ac:	ddc3031b          	addiw	t1,t1,-548 # ffffffffdfdedddc <freelist_head+0xffffffff5fde2dd4>
    800033b0:	00642f23          	sw	t1,30(s0)
    800033b4:	01e42383          	lw	t2,30(s0)
    800033b8:	00730463          	beq	t1,t2,800033c0 <userstart+0x8dc>
    800033bc:	3a00106f          	j	8000475c <fail>
    800033c0:	04100193          	li	gp,65
    800033c4:	e3e2e337          	lui	t1,0xe3e2e
    800033c8:	1e03031b          	addiw	t1,t1,480 # ffffffffe3e2e1e0 <freelist_head+0xffffffff63e231d8>
    800033cc:	00642fa3          	sw	t1,31(s0)
    800033d0:	01f42383          	lw	t2,31(s0)
    800033d4:	00730463          	beq	t1,t2,800033dc <userstart+0x8f8>
    800033d8:	3840106f          	j	8000475c <fail>
    800033dc:	04200193          	li	gp,66
    800033e0:	00074337          	lui	t1,0x74
    800033e4:	f373031b          	addiw	t1,t1,-201 # 73f37 <_start-0x7ff8c0c9>
    800033e8:	00d31313          	slli	t1,t1,0xd
    800033ec:	5e430313          	addi	t1,t1,1508
    800033f0:	00642ea3          	sw	t1,29(s0)
    800033f4:	01d46383          	lwu	t2,29(s0)
    800033f8:	00730463          	beq	t1,t2,80003400 <userstart+0x91c>
    800033fc:	3600106f          	j	8000475c <fail>
    80003400:	04300193          	li	gp,67
    80003404:	000ec337          	lui	t1,0xec
    80003408:	eaf3031b          	addiw	t1,t1,-337 # ebeaf <_start-0x7ff14151>
    8000340c:	00c31313          	slli	t1,t1,0xc
    80003410:	9e830313          	addi	t1,t1,-1560
    80003414:	00642f23          	sw	t1,30(s0)
    80003418:	01e46383          	lwu	t2,30(s0)
    8000341c:	00730463          	beq	t1,t2,80003424 <userstart+0x940>
    80003420:	33c0106f          	j	8000475c <fail>
    80003424:	04400193          	li	gp,68
    80003428:	000f0337          	lui	t1,0xf0
    8000342c:	eef3031b          	addiw	t1,t1,-273 # efeef <_start-0x7ff10111>
    80003430:	00c31313          	slli	t1,t1,0xc
    80003434:	dec30313          	addi	t1,t1,-532
    80003438:	00642fa3          	sw	t1,31(s0)
    8000343c:	01f46383          	lwu	t2,31(s0)
    80003440:	00730463          	beq	t1,t2,80003448 <userstart+0x964>
    80003444:	3180106f          	j	8000475c <fail>
    80003448:	04500193          	li	gp,69
    8000344c:	fffc0337          	lui	t1,0xfffc0
    80003450:	b7b3031b          	addiw	t1,t1,-1157 # fffffffffffbfb7b <freelist_head+0xffffffff7ffb4b73>
    80003454:	00f31313          	slli	t1,t1,0xf
    80003458:	d3d30313          	addi	t1,t1,-707
    8000345c:	00e31313          	slli	t1,t1,0xe
    80003460:	f2f30313          	addi	t1,t1,-209
    80003464:	00c31313          	slli	t1,t1,0xc
    80003468:	1f030313          	addi	t1,t1,496
    8000346c:	00643ca3          	sd	t1,25(s0)
    80003470:	01943383          	ld	t2,25(s0)
    80003474:	00730463          	beq	t1,t2,8000347c <userstart+0x998>
    80003478:	2e40106f          	j	8000475c <fail>
    8000347c:	04600193          	li	gp,70
    80003480:	ffff0337          	lui	t1,0xffff0
    80003484:	dfd3031b          	addiw	t1,t1,-515 # fffffffffffefdfd <freelist_head+0xffffffff7ffe4df5>
    80003488:	01031313          	slli	t1,t1,0x10
    8000348c:	bfb30313          	addi	t1,t1,-1029
    80003490:	01031313          	slli	t1,t1,0x10
    80003494:	9f830313          	addi	t1,t1,-1544
    80003498:	00643d23          	sd	t1,26(s0)
    8000349c:	01a43383          	ld	t2,26(s0)
    800034a0:	00730463          	beq	t1,t2,800034a8 <userstart+0x9c4>
    800034a4:	2b80106f          	j	8000475c <fail>
    800034a8:	04700193          	li	gp,71
    800034ac:	01c18337          	lui	t1,0x1c18
    800034b0:	1413031b          	addiw	t1,t1,321 # 1c18141 <_start-0x7e3e7ebf>
    800034b4:	01131313          	slli	t1,t1,0x11
    800034b8:	18130313          	addi	t1,t1,385
    800034bc:	01131313          	slli	t1,t1,0x11
    800034c0:	10030313          	addi	t1,t1,256
    800034c4:	00643da3          	sd	t1,27(s0)
    800034c8:	01b43383          	ld	t2,27(s0)
    800034cc:	00730463          	beq	t1,t2,800034d4 <userstart+0x9f0>
    800034d0:	28c0106f          	j	8000475c <fail>
    800034d4:	04800193          	li	gp,72
    800034d8:	00f0e337          	lui	t1,0xf0e
    800034dc:	0d13031b          	addiw	t1,t1,209 # f0e0d1 <_start-0x7f0f1f2f>
    800034e0:	00c31313          	slli	t1,t1,0xc
    800034e4:	c0b30313          	addi	t1,t1,-1013
    800034e8:	00c31313          	slli	t1,t1,0xc
    800034ec:	0a130313          	addi	t1,t1,161
    800034f0:	00c31313          	slli	t1,t1,0xc
    800034f4:	90830313          	addi	t1,t1,-1784
    800034f8:	00643e23          	sd	t1,28(s0)
    800034fc:	01c43383          	ld	t2,28(s0)
    80003500:	00730463          	beq	t1,t2,80003508 <userstart+0xa24>
    80003504:	2580106f          	j	8000475c <fail>
    80003508:	04900193          	li	gp,73
    8000350c:	01716337          	lui	t1,0x1716
    80003510:	1513031b          	addiw	t1,t1,337 # 1716151 <_start-0x7e8e9eaf>
    80003514:	00c31313          	slli	t1,t1,0xc
    80003518:	41330313          	addi	t1,t1,1043
    8000351c:	00c31313          	slli	t1,t1,0xc
    80003520:	12130313          	addi	t1,t1,289
    80003524:	00c31313          	slli	t1,t1,0xc
    80003528:	11030313          	addi	t1,t1,272
    8000352c:	00643ea3          	sd	t1,29(s0)
    80003530:	01d43383          	ld	t2,29(s0)
    80003534:	00730463          	beq	t1,t2,8000353c <userstart+0xa58>
    80003538:	2240106f          	j	8000475c <fail>
    8000353c:	04a00193          	li	gp,74
    80003540:	001f2337          	lui	t1,0x1f2
    80003544:	e1d3031b          	addiw	t1,t1,-483 # 1f1e1d <_start-0x7fe0e1e3>
    80003548:	00e31313          	slli	t1,t1,0xe
    8000354c:	70730313          	addi	t1,t1,1799
    80003550:	00d31313          	slli	t1,t1,0xd
    80003554:	8d130313          	addi	t1,t1,-1839
    80003558:	00d31313          	slli	t1,t1,0xd
    8000355c:	91830313          	addi	t1,t1,-1768
    80003560:	00643f23          	sd	t1,30(s0)
    80003564:	01e43383          	ld	t2,30(s0)
    80003568:	00730463          	beq	t1,t2,80003570 <userstart+0xa8c>
    8000356c:	1f00106f          	j	8000475c <fail>
    80003570:	04b00193          	li	gp,75
    80003574:	009ca337          	lui	t1,0x9ca
    80003578:	8953031b          	addiw	t1,t1,-1899 # 9c9895 <_start-0x7f63676b>
    8000357c:	00c31313          	slli	t1,t1,0xc
    80003580:	90930313          	addi	t1,t1,-1783
    80003584:	00d31313          	slli	t1,t1,0xd
    80003588:	91130313          	addi	t1,t1,-1775
    8000358c:	00d31313          	slli	t1,t1,0xd
    80003590:	12030313          	addi	t1,t1,288
    80003594:	00643fa3          	sd	t1,31(s0)
    80003598:	01f43383          	ld	t2,31(s0)
    8000359c:	00730463          	beq	t1,t2,800035a4 <userstart+0xac0>
    800035a0:	1bc0106f          	j	8000475c <fail>
    800035a4:	04c00193          	li	gp,76
    800035a8:	00003337          	lui	t1,0x3
    800035ac:	5343031b          	addiw	t1,t1,1332 # 3534 <_start-0x7fffcacc>
    800035b0:	02641fa3          	sh	t1,63(s0)
    800035b4:	03f41383          	lh	t2,63(s0)
    800035b8:	00730463          	beq	t1,t2,800035c0 <userstart+0xadc>
    800035bc:	1a00106f          	j	8000475c <fail>
    800035c0:	04d00193          	li	gp,77
    800035c4:	00003337          	lui	t1,0x3
    800035c8:	7363031b          	addiw	t1,t1,1846 # 3736 <_start-0x7fffc8ca>
    800035cc:	02641fa3          	sh	t1,63(s0)
    800035d0:	03f45383          	lhu	t2,63(s0)
    800035d4:	00730463          	beq	t1,t2,800035dc <userstart+0xaf8>
    800035d8:	1840106f          	j	8000475c <fail>
    800035dc:	04e00193          	li	gp,78
    800035e0:	3b3a4337          	lui	t1,0x3b3a4
    800035e4:	9383031b          	addiw	t1,t1,-1736 # 3b3a3938 <_start-0x44c5c6c8>
    800035e8:	02642ea3          	sw	t1,61(s0)
    800035ec:	03d42383          	lw	t2,61(s0)
    800035f0:	00730463          	beq	t1,t2,800035f8 <userstart+0xb14>
    800035f4:	1680106f          	j	8000475c <fail>
    800035f8:	04f00193          	li	gp,79
    800035fc:	3f3e4337          	lui	t1,0x3f3e4
    80003600:	d3c3031b          	addiw	t1,t1,-708 # 3f3e3d3c <_start-0x40c1c2c4>
    80003604:	02642f23          	sw	t1,62(s0)
    80003608:	03e42383          	lw	t2,62(s0)
    8000360c:	00730463          	beq	t1,t2,80003614 <userstart+0xb30>
    80003610:	14c0106f          	j	8000475c <fail>
    80003614:	05000193          	li	gp,80
    80003618:	43424337          	lui	t1,0x43424
    8000361c:	1403031b          	addiw	t1,t1,320 # 43424140 <_start-0x3cbdbec0>
    80003620:	02642fa3          	sw	t1,63(s0)
    80003624:	03f42383          	lw	t2,63(s0)
    80003628:	00730463          	beq	t1,t2,80003630 <userstart+0xb4c>
    8000362c:	1300106f          	j	8000475c <fail>
    80003630:	05100193          	li	gp,81
    80003634:	47464337          	lui	t1,0x47464
    80003638:	5443031b          	addiw	t1,t1,1348 # 47464544 <_start-0x38b9babc>
    8000363c:	02642ea3          	sw	t1,61(s0)
    80003640:	03d46383          	lwu	t2,61(s0)
    80003644:	00730463          	beq	t1,t2,8000364c <userstart+0xb68>
    80003648:	1140106f          	j	8000475c <fail>
    8000364c:	05200193          	li	gp,82
    80003650:	4b4a5337          	lui	t1,0x4b4a5
    80003654:	9483031b          	addiw	t1,t1,-1720 # 4b4a4948 <_start-0x34b5b6b8>
    80003658:	02642f23          	sw	t1,62(s0)
    8000365c:	03e46383          	lwu	t2,62(s0)
    80003660:	00730463          	beq	t1,t2,80003668 <userstart+0xb84>
    80003664:	0f80106f          	j	8000475c <fail>
    80003668:	05300193          	li	gp,83
    8000366c:	4f4e5337          	lui	t1,0x4f4e5
    80003670:	d4c3031b          	addiw	t1,t1,-692 # 4f4e4d4c <_start-0x30b1b2b4>
    80003674:	02642fa3          	sw	t1,63(s0)
    80003678:	03f46383          	lwu	t2,63(s0)
    8000367c:	00730463          	beq	t1,t2,80003684 <userstart+0xba0>
    80003680:	0dc0106f          	j	8000475c <fail>
    80003684:	05400193          	li	gp,84
    80003688:	05756337          	lui	t1,0x5756
    8000368c:	5553031b          	addiw	t1,t1,1365 # 5756555 <_start-0x7a8a9aab>
    80003690:	00c31313          	slli	t1,t1,0xc
    80003694:	45330313          	addi	t1,t1,1107
    80003698:	00c31313          	slli	t1,t1,0xc
    8000369c:	52530313          	addi	t1,t1,1317
    800036a0:	00c31313          	slli	t1,t1,0xc
    800036a4:	15030313          	addi	t1,t1,336
    800036a8:	02643ca3          	sd	t1,57(s0)
    800036ac:	03943383          	ld	t2,57(s0)
    800036b0:	00730463          	beq	t1,t2,800036b8 <userstart+0xbd4>
    800036b4:	0a80106f          	j	8000475c <fail>
    800036b8:	05500193          	li	gp,85
    800036bc:	017d8337          	lui	t1,0x17d8
    800036c0:	9753031b          	addiw	t1,t1,-1675 # 17d7975 <_start-0x7e82868b>
    800036c4:	00c31313          	slli	t1,t1,0xc
    800036c8:	71730313          	addi	t1,t1,1815
    800036cc:	00d31313          	slli	t1,t1,0xd
    800036d0:	ad330313          	addi	t1,t1,-1325
    800036d4:	00d31313          	slli	t1,t1,0xd
    800036d8:	95830313          	addi	t1,t1,-1704
    800036dc:	02643d23          	sd	t1,58(s0)
    800036e0:	03a43383          	ld	t2,58(s0)
    800036e4:	00730463          	beq	t1,t2,800036ec <userstart+0xc08>
    800036e8:	0740106f          	j	8000475c <fail>
    800036ec:	05600193          	li	gp,86
    800036f0:	00ced337          	lui	t1,0xced
    800036f4:	ccb3031b          	addiw	t1,t1,-821 # cecccb <_start-0x7f313335>
    800036f8:	00d31313          	slli	t1,t1,0xd
    800036fc:	91930313          	addi	t1,t1,-1767
    80003700:	00d31313          	slli	t1,t1,0xd
    80003704:	b1330313          	addi	t1,t1,-1261
    80003708:	00d31313          	slli	t1,t1,0xd
    8000370c:	16030313          	addi	t1,t1,352
    80003710:	02643da3          	sd	t1,59(s0)
    80003714:	03b43383          	ld	t2,59(s0)
    80003718:	00730463          	beq	t1,t2,80003720 <userstart+0xc3c>
    8000371c:	0400106f          	j	8000475c <fail>
    80003720:	05700193          	li	gp,87
    80003724:	06f6e337          	lui	t1,0x6f6e
    80003728:	6d73031b          	addiw	t1,t1,1751 # 6f6e6d7 <_start-0x79091929>
    8000372c:	00c31313          	slli	t1,t1,0xc
    80003730:	c6b30313          	addi	t1,t1,-917
    80003734:	00c31313          	slli	t1,t1,0xc
    80003738:	6a730313          	addi	t1,t1,1703
    8000373c:	00c31313          	slli	t1,t1,0xc
    80003740:	96830313          	addi	t1,t1,-1688
    80003744:	02643e23          	sd	t1,60(s0)
    80003748:	03c43383          	ld	t2,60(s0)
    8000374c:	00730463          	beq	t1,t2,80003754 <userstart+0xc70>
    80003750:	00c0106f          	j	8000475c <fail>
    80003754:	05800193          	li	gp,88
    80003758:	07776337          	lui	t1,0x7776
    8000375c:	7573031b          	addiw	t1,t1,1879 # 7776757 <_start-0x788898a9>
    80003760:	00c31313          	slli	t1,t1,0xc
    80003764:	47330313          	addi	t1,t1,1139
    80003768:	00c31313          	slli	t1,t1,0xc
    8000376c:	72730313          	addi	t1,t1,1831
    80003770:	00c31313          	slli	t1,t1,0xc
    80003774:	17030313          	addi	t1,t1,368
    80003778:	02643ea3          	sd	t1,61(s0)
    8000377c:	03d43383          	ld	t2,61(s0)
    80003780:	7c731ee3          	bne	t1,t2,8000475c <fail>
    80003784:	05900193          	li	gp,89
    80003788:	00ff0337          	lui	t1,0xff0
    8000378c:	cfb3031b          	addiw	t1,t1,-773 # fefcfb <_start-0x7f010305>
    80003790:	00c31313          	slli	t1,t1,0xc
    80003794:	f8f30313          	addi	t1,t1,-113
    80003798:	00c31313          	slli	t1,t1,0xc
    8000379c:	6f530313          	addi	t1,t1,1781
    800037a0:	00f31313          	slli	t1,t1,0xf
    800037a4:	97830313          	addi	t1,t1,-1672
    800037a8:	02643f23          	sd	t1,62(s0)
    800037ac:	03e43383          	ld	t2,62(s0)
    800037b0:	7a7316e3          	bne	t1,t2,8000475c <fail>
    800037b4:	05a00193          	li	gp,90
    800037b8:	fff0f337          	lui	t1,0xfff0f
    800037bc:	0d13031b          	addiw	t1,t1,209 # fffffffffff0f0d1 <freelist_head+0xffffffff7ff040c9>
    800037c0:	00c31313          	slli	t1,t1,0xc
    800037c4:	b0930313          	addi	t1,t1,-1271
    800037c8:	01031313          	slli	t1,t1,0x10
    800037cc:	70530313          	addi	t1,t1,1797
    800037d0:	00f31313          	slli	t1,t1,0xf
    800037d4:	18030313          	addi	t1,t1,384
    800037d8:	02643fa3          	sd	t1,63(s0)
    800037dc:	03f43383          	ld	t2,63(s0)
    800037e0:	76731ee3          	bne	t1,t2,8000475c <fail>
    800037e4:	05b00193          	li	gp,91
    800037e8:	0000a337          	lui	t1,0xa
    800037ec:	9983031b          	addiw	t1,t1,-1640 # 9998 <_start-0x7fff6668>
    800037f0:	f9800393          	li	t2,-104
    800037f4:	006410a3          	sh	t1,1(s0)
    800037f8:	00140e03          	lb	t3,1(s0)
    800037fc:	77c390e3          	bne	t2,t3,8000475c <fail>
    80003800:	05c00193          	li	gp,92
    80003804:	0000a337          	lui	t1,0xa
    80003808:	b9a3031b          	addiw	t1,t1,-1126 # 9b9a <_start-0x7fff6466>
    8000380c:	f9b00393          	li	t2,-101
    80003810:	006410a3          	sh	t1,1(s0)
    80003814:	00240e03          	lb	t3,2(s0)
    80003818:	75c392e3          	bne	t2,t3,8000475c <fail>
    8000381c:	05d00193          	li	gp,93
    80003820:	0000a337          	lui	t1,0xa
    80003824:	d9c3031b          	addiw	t1,t1,-612 # 9d9c <_start-0x7fff6264>
    80003828:	09c00393          	li	t2,156
    8000382c:	006410a3          	sh	t1,1(s0)
    80003830:	00144e03          	lbu	t3,1(s0)
    80003834:	73c394e3          	bne	t2,t3,8000475c <fail>
    80003838:	05e00193          	li	gp,94
    8000383c:	0000a337          	lui	t1,0xa
    80003840:	f9e3031b          	addiw	t1,t1,-98 # 9f9e <_start-0x7fff6062>
    80003844:	09f00393          	li	t2,159
    80003848:	006410a3          	sh	t1,1(s0)
    8000384c:	00244e03          	lbu	t3,2(s0)
    80003850:	71c396e3          	bne	t2,t3,8000475c <fail>
    80003854:	05f00193          	li	gp,95
    80003858:	00052337          	lui	t1,0x52
    8000385c:	d153031b          	addiw	t1,t1,-747 # 51d15 <_start-0x7ffae2eb>
    80003860:	00d31313          	slli	t1,t1,0xd
    80003864:	1a030313          	addi	t1,t1,416
    80003868:	fa000393          	li	t2,-96
    8000386c:	006420a3          	sw	t1,1(s0)
    80003870:	00140e03          	lb	t3,1(s0)
    80003874:	6fc394e3          	bne	t2,t3,8000475c <fail>
    80003878:	06000193          	li	gp,96
    8000387c:	00054337          	lui	t1,0x54
    80003880:	d353031b          	addiw	t1,t1,-715 # 53d35 <_start-0x7ffac2cb>
    80003884:	00d31313          	slli	t1,t1,0xd
    80003888:	5a430313          	addi	t1,t1,1444
    8000388c:	0a500393          	li	t2,165
    80003890:	00642123          	sw	t1,2(s0)
    80003894:	00344e03          	lbu	t3,3(s0)
    80003898:	6dc392e3          	bne	t2,t3,8000475c <fail>
    8000389c:	06100193          	li	gp,97
    800038a0:	000ac337          	lui	t1,0xac
    800038a4:	aab3031b          	addiw	t1,t1,-1365 # abaab <_start-0x7ff54555>
    800038a8:	00c31313          	slli	t1,t1,0xc
    800038ac:	9a830313          	addi	t1,t1,-1624
    800038b0:	ffffb3b7          	lui	t2,0xffffb
    800038b4:	aa93839b          	addiw	t2,t2,-1367 # ffffffffffffaaa9 <freelist_head+0xffffffff7ffefaa1>
    800038b8:	006421a3          	sw	t1,3(s0)
    800038bc:	00441e03          	lh	t3,4(s0)
    800038c0:	69c39ee3          	bne	t2,t3,8000475c <fail>
    800038c4:	06200193          	li	gp,98
    800038c8:	000b0337          	lui	t1,0xb0
    800038cc:	aeb3031b          	addiw	t1,t1,-1301 # afaeb <_start-0x7ff50515>
    800038d0:	00c31313          	slli	t1,t1,0xc
    800038d4:	dac30313          	addi	t1,t1,-596
    800038d8:	0000b3b7          	lui	t2,0xb
    800038dc:	fae3839b          	addiw	t2,t2,-82 # afae <_start-0x7fff5052>
    800038e0:	006421a3          	sw	t1,3(s0)
    800038e4:	00545e03          	lhu	t3,5(s0)
    800038e8:	67c39ae3          	bne	t2,t3,8000475c <fail>
    800038ec:	06300193          	li	gp,99
    800038f0:	fedee337          	lui	t1,0xfedee
    800038f4:	ad73031b          	addiw	t1,t1,-1321 # fffffffffededad7 <freelist_head+0xffffffff7ede2acf>
    800038f8:	00c31313          	slli	t1,t1,0xc
    800038fc:	d2d30313          	addi	t1,t1,-723
    80003900:	00e31313          	slli	t1,t1,0xe
    80003904:	b2b30313          	addi	t1,t1,-1237
    80003908:	00c31313          	slli	t1,t1,0xc
    8000390c:	1b030313          	addi	t1,t1,432
    80003910:	fb600393          	li	t2,-74
    80003914:	006430a3          	sd	t1,1(s0)
    80003918:	00740e03          	lb	t3,7(s0)
    8000391c:	65c390e3          	bne	t2,t3,8000475c <fail>
    80003920:	06400193          	li	gp,100
    80003924:	feff0337          	lui	t1,0xfeff0
    80003928:	af73031b          	addiw	t1,t1,-1289 # fffffffffefefaf7 <freelist_head+0xffffffff7efe4aef>
    8000392c:	00c31313          	slli	t1,t1,0xc
    80003930:	f2f30313          	addi	t1,t1,-209
    80003934:	00c31313          	slli	t1,t1,0xc
    80003938:	eeb30313          	addi	t1,t1,-277
    8000393c:	00e31313          	slli	t1,t1,0xe
    80003940:	9b830313          	addi	t1,t1,-1608
    80003944:	0b900393          	li	t2,185
    80003948:	00643123          	sd	t1,2(s0)
    8000394c:	00344e03          	lbu	t3,3(s0)
    80003950:	61c396e3          	bne	t2,t3,8000475c <fail>
    80003954:	06500193          	li	gp,101
    80003958:	ff1f2337          	lui	t1,0xff1f2
    8000395c:	b173031b          	addiw	t1,t1,-1257 # ffffffffff1f1b17 <freelist_head+0xffffffff7f1e6b0f>
    80003960:	00c31313          	slli	t1,t1,0xc
    80003964:	13130313          	addi	t1,t1,305
    80003968:	00c31313          	slli	t1,t1,0xc
    8000396c:	f0b30313          	addi	t1,t1,-245
    80003970:	00e31313          	slli	t1,t1,0xe
    80003974:	1c030313          	addi	t1,t1,448
    80003978:	ffffc3b7          	lui	t2,0xffffc
    8000397c:	7c63839b          	addiw	t2,t2,1990 # ffffffffffffc7c6 <freelist_head+0xffffffff7fff17be>
    80003980:	006431a3          	sd	t1,3(s0)
    80003984:	00941e03          	lh	t3,9(s0)
    80003988:	5dc39ae3          	bne	t2,t3,8000475c <fail>
    8000398c:	06600193          	li	gp,102
    80003990:	ff3f4337          	lui	t1,0xff3f4
    80003994:	b373031b          	addiw	t1,t1,-1225 # ffffffffff3f3b37 <freelist_head+0xffffffff7f3e8b2f>
    80003998:	00c31313          	slli	t1,t1,0xc
    8000399c:	33330313          	addi	t1,t1,819
    800039a0:	00e31313          	slli	t1,t1,0xe
    800039a4:	cad30313          	addi	t1,t1,-851
    800039a8:	00c31313          	slli	t1,t1,0xc
    800039ac:	9c830313          	addi	t1,t1,-1592
    800039b0:	0000d3b7          	lui	t2,0xd
    800039b4:	ac93839b          	addiw	t2,t2,-1335 # cac9 <_start-0x7fff3537>
    800039b8:	00643223          	sd	t1,4(s0)
    800039bc:	00545e03          	lhu	t3,5(s0)
    800039c0:	59c39ee3          	bne	t2,t3,8000475c <fail>
    800039c4:	06700193          	li	gp,103
    800039c8:	ff5f6337          	lui	t1,0xff5f6
    800039cc:	b573031b          	addiw	t1,t1,-1193 # ffffffffff5f5b57 <freelist_head+0xffffffff7f5eab4f>
    800039d0:	00c31313          	slli	t1,t1,0xc
    800039d4:	53530313          	addi	t1,t1,1333
    800039d8:	00e31313          	slli	t1,t1,0xe
    800039dc:	d2d30313          	addi	t1,t1,-723
    800039e0:	00c31313          	slli	t1,t1,0xc
    800039e4:	1d030313          	addi	t1,t1,464
    800039e8:	d7d6d3b7          	lui	t2,0xd7d6d
    800039ec:	5d43839b          	addiw	t2,t2,1492 # ffffffffd7d6d5d4 <freelist_head+0xffffffff57d625cc>
    800039f0:	006432a3          	sd	t1,5(s0)
    800039f4:	00942e03          	lw	t3,9(s0)
    800039f8:	57c392e3          	bne	t2,t3,8000475c <fail>
    800039fc:	06800193          	li	gp,104
    80003a00:	ff7f8337          	lui	t1,0xff7f8
    80003a04:	b773031b          	addiw	t1,t1,-1161 # ffffffffff7f7b77 <freelist_head+0xffffffff7f7ecb6f>
    80003a08:	00c31313          	slli	t1,t1,0xc
    80003a0c:	73730313          	addi	t1,t1,1847
    80003a10:	00d31313          	slli	t1,t1,0xd
    80003a14:	ed730313          	addi	t1,t1,-297
    80003a18:	00d31313          	slli	t1,t1,0xd
    80003a1c:	9d830313          	addi	t1,t1,-1576
    80003a20:	dddce3b7          	lui	t2,0xdddce
    80003a24:	bda3839b          	addiw	t2,t2,-1062 # ffffffffdddcdbda <freelist_head+0xffffffff5ddc2bd2>
    80003a28:	00643323          	sd	t1,6(s0)
    80003a2c:	00842e03          	lw	t3,8(s0)
    80003a30:	53c396e3          	bne	t2,t3,8000475c <fail>
    80003a34:	06900193          	li	gp,105
    80003a38:	fff3f337          	lui	t1,0xfff3f
    80003a3c:	3733031b          	addiw	t1,t1,883 # fffffffffff3f373 <freelist_head+0xffffffff7ff3436b>
    80003a40:	00f31313          	slli	t1,t1,0xf
    80003a44:	93930313          	addi	t1,t1,-1735
    80003a48:	00d31313          	slli	t1,t1,0xd
    80003a4c:	f1730313          	addi	t1,t1,-233
    80003a50:	00d31313          	slli	t1,t1,0xd
    80003a54:	1e030313          	addi	t1,t1,480
    80003a58:	000723b7          	lui	t2,0x72
    80003a5c:	71f3839b          	addiw	t2,t2,1823 # 7271f <_start-0x7ff8d8e1>
    80003a60:	00d39393          	slli	t2,t2,0xd
    80003a64:	2e138393          	addi	t2,t2,737
    80003a68:	006433a3          	sd	t1,7(s0)
    80003a6c:	00846e03          	lwu	t3,8(s0)
    80003a70:	4fc396e3          	bne	t2,t3,8000475c <fail>
    80003a74:	06a00193          	li	gp,106
    80003a78:	0000f337          	lui	t1,0xf
    80003a7c:	9e83031b          	addiw	t1,t1,-1560 # e9e8 <_start-0x7fff1618>
    80003a80:	fe800393          	li	t2,-24
    80003a84:	00641fa3          	sh	t1,31(s0)
    80003a88:	01f40e03          	lb	t3,31(s0)
    80003a8c:	4dc398e3          	bne	t2,t3,8000475c <fail>
    80003a90:	06b00193          	li	gp,107
    80003a94:	0000f337          	lui	t1,0xf
    80003a98:	bea3031b          	addiw	t1,t1,-1046 # ebea <_start-0x7fff1416>
    80003a9c:	feb00393          	li	t2,-21
    80003aa0:	00641fa3          	sh	t1,31(s0)
    80003aa4:	02040e03          	lb	t3,32(s0)
    80003aa8:	4bc39ae3          	bne	t2,t3,8000475c <fail>
    80003aac:	06c00193          	li	gp,108
    80003ab0:	0000f337          	lui	t1,0xf
    80003ab4:	dec3031b          	addiw	t1,t1,-532 # edec <_start-0x7fff1214>
    80003ab8:	0ec00393          	li	t2,236
    80003abc:	00641fa3          	sh	t1,31(s0)
    80003ac0:	01f44e03          	lbu	t3,31(s0)
    80003ac4:	49c39ce3          	bne	t2,t3,8000475c <fail>
    80003ac8:	06d00193          	li	gp,109
    80003acc:	0000f337          	lui	t1,0xf
    80003ad0:	fee3031b          	addiw	t1,t1,-18 # efee <_start-0x7fff1012>
    80003ad4:	0ef00393          	li	t2,239
    80003ad8:	00641fa3          	sh	t1,31(s0)
    80003adc:	02044e03          	lbu	t3,32(s0)
    80003ae0:	47c39ee3          	bne	t2,t3,8000475c <fail>
    80003ae4:	06e00193          	li	gp,110
    80003ae8:	000f4337          	lui	t1,0xf4
    80003aec:	f2f3031b          	addiw	t1,t1,-209 # f3f2f <_start-0x7ff0c0d1>
    80003af0:	00c31313          	slli	t1,t1,0xc
    80003af4:	1f030313          	addi	t1,t1,496
    80003af8:	ff000393          	li	t2,-16
    80003afc:	00642ea3          	sw	t1,29(s0)
    80003b00:	01d40e03          	lb	t3,29(s0)
    80003b04:	45c39ce3          	bne	t2,t3,8000475c <fail>
    80003b08:	06f00193          	li	gp,111
    80003b0c:	000f8337          	lui	t1,0xf8
    80003b10:	f6f3031b          	addiw	t1,t1,-145 # f7f6f <_start-0x7ff08091>
    80003b14:	00c31313          	slli	t1,t1,0xc
    80003b18:	5f430313          	addi	t1,t1,1524
    80003b1c:	0f600393          	li	t2,246
    80003b20:	00642f23          	sw	t1,30(s0)
    80003b24:	02044e03          	lbu	t3,32(s0)
    80003b28:	43c39ae3          	bne	t2,t3,8000475c <fail>
    80003b2c:	07000193          	li	gp,112
    80003b30:	00010337          	lui	t1,0x10
    80003b34:	bfb3031b          	addiw	t1,t1,-1029 # fbfb <_start-0x7fff0405>
    80003b38:	01031313          	slli	t1,t1,0x10
    80003b3c:	9f830313          	addi	t1,t1,-1544
    80003b40:	bfa00393          	li	t2,-1030
    80003b44:	00642ea3          	sw	t1,29(s0)
    80003b48:	01f41e03          	lh	t3,31(s0)
    80003b4c:	41c398e3          	bne	t2,t3,8000475c <fail>
    80003b50:	07100193          	li	gp,113
    80003b54:	00010337          	lui	t1,0x10
    80003b58:	fff3031b          	addiw	t1,t1,-1 # ffff <_start-0x7fff0001>
    80003b5c:	01031313          	slli	t1,t1,0x10
    80003b60:	dfc30313          	addi	t1,t1,-516
    80003b64:	000103b7          	lui	t2,0x10
    80003b68:	dfc3839b          	addiw	t2,t2,-516 # fdfc <_start-0x7fff0204>
    80003b6c:	00642fa3          	sw	t1,31(s0)
    80003b70:	01f45e03          	lhu	t3,31(s0)
    80003b74:	3fc394e3          	bne	t2,t3,8000475c <fail>
    80003b78:	07200193          	li	gp,114
    80003b7c:	01c18337          	lui	t1,0x1c18
    80003b80:	1413031b          	addiw	t1,t1,321 # 1c18141 <_start-0x7e3e7ebf>
    80003b84:	01131313          	slli	t1,t1,0x11
    80003b88:	18130313          	addi	t1,t1,385
    80003b8c:	01131313          	slli	t1,t1,0x11
    80003b90:	10030313          	addi	t1,t1,256
    80003b94:	00700393          	li	t2,7
    80003b98:	00643ca3          	sd	t1,25(s0)
    80003b9c:	02040e03          	lb	t3,32(s0)
    80003ba0:	3bc39ee3          	bne	t2,t3,8000475c <fail>
    80003ba4:	07300193          	li	gp,115
    80003ba8:	00f0e337          	lui	t1,0xf0e
    80003bac:	0d13031b          	addiw	t1,t1,209 # f0e0d1 <_start-0x7f0f1f2f>
    80003bb0:	00c31313          	slli	t1,t1,0xc
    80003bb4:	c0b30313          	addi	t1,t1,-1013
    80003bb8:	00c31313          	slli	t1,t1,0xc
    80003bbc:	0a130313          	addi	t1,t1,161
    80003bc0:	00c31313          	slli	t1,t1,0xc
    80003bc4:	90830313          	addi	t1,t1,-1784
    80003bc8:	00f00393          	li	t2,15
    80003bcc:	00643d23          	sd	t1,26(s0)
    80003bd0:	02144e03          	lbu	t3,33(s0)
    80003bd4:	39c394e3          	bne	t2,t3,8000475c <fail>
    80003bd8:	07400193          	li	gp,116
    80003bdc:	01716337          	lui	t1,0x1716
    80003be0:	1513031b          	addiw	t1,t1,337 # 1716151 <_start-0x7e8e9eaf>
    80003be4:	00c31313          	slli	t1,t1,0xc
    80003be8:	41330313          	addi	t1,t1,1043
    80003bec:	00c31313          	slli	t1,t1,0xc
    80003bf0:	12130313          	addi	t1,t1,289
    80003bf4:	00c31313          	slli	t1,t1,0xc
    80003bf8:	11030313          	addi	t1,t1,272
    80003bfc:	000013b7          	lui	t2,0x1
    80003c00:	5143839b          	addiw	t2,t2,1300 # 1514 <_start-0x7fffeaec>
    80003c04:	00643da3          	sd	t1,27(s0)
    80003c08:	01f41e03          	lh	t3,31(s0)
    80003c0c:	35c398e3          	bne	t2,t3,8000475c <fail>
    80003c10:	07500193          	li	gp,117
    80003c14:	001f2337          	lui	t1,0x1f2
    80003c18:	e1d3031b          	addiw	t1,t1,-483 # 1f1e1d <_start-0x7fe0e1e3>
    80003c1c:	00e31313          	slli	t1,t1,0xe
    80003c20:	70730313          	addi	t1,t1,1799
    80003c24:	00d31313          	slli	t1,t1,0xd
    80003c28:	8d130313          	addi	t1,t1,-1839
    80003c2c:	00d31313          	slli	t1,t1,0xd
    80003c30:	91830313          	addi	t1,t1,-1768
    80003c34:	000023b7          	lui	t2,0x2
    80003c38:	c1b3839b          	addiw	t2,t2,-997 # 1c1b <_start-0x7fffe3e5>
    80003c3c:	00643e23          	sd	t1,28(s0)
    80003c40:	01f45e03          	lhu	t3,31(s0)
    80003c44:	31c39ce3          	bne	t2,t3,8000475c <fail>
    80003c48:	07600193          	li	gp,118
    80003c4c:	009ca337          	lui	t1,0x9ca
    80003c50:	8953031b          	addiw	t1,t1,-1899 # 9c9895 <_start-0x7f63676b>
    80003c54:	00c31313          	slli	t1,t1,0xc
    80003c58:	90930313          	addi	t1,t1,-1783
    80003c5c:	00d31313          	slli	t1,t1,0xd
    80003c60:	91130313          	addi	t1,t1,-1775
    80003c64:	00d31313          	slli	t1,t1,0xd
    80003c68:	12030313          	addi	t1,t1,288
    80003c6c:	232223b7          	lui	t2,0x23222
    80003c70:	1203839b          	addiw	t2,t2,288 # 23222120 <_start-0x5cdddee0>
    80003c74:	00643ea3          	sd	t1,29(s0)
    80003c78:	01d42e03          	lw	t3,29(s0)
    80003c7c:	2fc390e3          	bne	t2,t3,8000475c <fail>
    80003c80:	07700193          	li	gp,119
    80003c84:	02f2e337          	lui	t1,0x2f2e
    80003c88:	2d33031b          	addiw	t1,t1,723 # 2f2e2d3 <_start-0x7d0d1d2d>
    80003c8c:	00c31313          	slli	t1,t1,0xc
    80003c90:	c2b30313          	addi	t1,t1,-981
    80003c94:	00c31313          	slli	t1,t1,0xc
    80003c98:	2a330313          	addi	t1,t1,675
    80003c9c:	00c31313          	slli	t1,t1,0xc
    80003ca0:	92830313          	addi	t1,t1,-1752
    80003ca4:	2b2a33b7          	lui	t2,0x2b2a3
    80003ca8:	9283839b          	addiw	t2,t2,-1752 # 2b2a2928 <_start-0x54d5d6d8>
    80003cac:	00643f23          	sd	t1,30(s0)
    80003cb0:	01e42e03          	lw	t3,30(s0)
    80003cb4:	2bc394e3          	bne	t2,t3,8000475c <fail>
    80003cb8:	07800193          	li	gp,120
    80003cbc:	03736337          	lui	t1,0x3736
    80003cc0:	3533031b          	addiw	t1,t1,851 # 3736353 <_start-0x7c8c9cad>
    80003cc4:	00c31313          	slli	t1,t1,0xc
    80003cc8:	43330313          	addi	t1,t1,1075
    80003ccc:	00c31313          	slli	t1,t1,0xc
    80003cd0:	32330313          	addi	t1,t1,803
    80003cd4:	00c31313          	slli	t1,t1,0xc
    80003cd8:	13030313          	addi	t1,t1,304
    80003cdc:	333233b7          	lui	t2,0x33323
    80003ce0:	1303839b          	addiw	t2,t2,304 # 33323130 <_start-0x4ccdced0>
    80003ce4:	00643fa3          	sd	t1,31(s0)
    80003ce8:	01f46e03          	lwu	t3,31(s0)
    80003cec:	27c398e3          	bne	t2,t3,8000475c <fail>
    80003cf0:	07900193          	li	gp,121
    80003cf4:	00005337          	lui	t1,0x5
    80003cf8:	9483031b          	addiw	t1,t1,-1720 # 4948 <_start-0x7fffb6b8>
    80003cfc:	04800393          	li	t2,72
    80003d00:	02641fa3          	sh	t1,63(s0)
    80003d04:	03f40e03          	lb	t3,63(s0)
    80003d08:	25c39ae3          	bne	t2,t3,8000475c <fail>
    80003d0c:	07a00193          	li	gp,122
    80003d10:	00005337          	lui	t1,0x5
    80003d14:	b4a3031b          	addiw	t1,t1,-1206 # 4b4a <_start-0x7fffb4b6>
    80003d18:	04b00393          	li	t2,75
    80003d1c:	02641fa3          	sh	t1,63(s0)
    80003d20:	04040e03          	lb	t3,64(s0)
    80003d24:	23c39ce3          	bne	t2,t3,8000475c <fail>
    80003d28:	07b00193          	li	gp,123
    80003d2c:	00005337          	lui	t1,0x5
    80003d30:	d4c3031b          	addiw	t1,t1,-692 # 4d4c <_start-0x7fffb2b4>
    80003d34:	04c00393          	li	t2,76
    80003d38:	02641fa3          	sh	t1,63(s0)
    80003d3c:	03f44e03          	lbu	t3,63(s0)
    80003d40:	21c39ee3          	bne	t2,t3,8000475c <fail>
    80003d44:	07c00193          	li	gp,124
    80003d48:	00005337          	lui	t1,0x5
    80003d4c:	f4e3031b          	addiw	t1,t1,-178 # 4f4e <_start-0x7fffb0b2>
    80003d50:	04f00393          	li	t2,79
    80003d54:	02641fa3          	sh	t1,63(s0)
    80003d58:	04044e03          	lbu	t3,64(s0)
    80003d5c:	21c390e3          	bne	t2,t3,8000475c <fail>
    80003d60:	07d00193          	li	gp,125
    80003d64:	53525337          	lui	t1,0x53525
    80003d68:	1503031b          	addiw	t1,t1,336 # 53525150 <_start-0x2cadaeb0>
    80003d6c:	05000393          	li	t2,80
    80003d70:	02642ea3          	sw	t1,61(s0)
    80003d74:	03d40e03          	lb	t3,61(s0)
    80003d78:	1fc392e3          	bne	t2,t3,8000475c <fail>
    80003d7c:	07e00193          	li	gp,126
    80003d80:	57565337          	lui	t1,0x57565
    80003d84:	5543031b          	addiw	t1,t1,1364 # 57565554 <_start-0x28a9aaac>
    80003d88:	05600393          	li	t2,86
    80003d8c:	02642f23          	sw	t1,62(s0)
    80003d90:	04044e03          	lbu	t3,64(s0)
    80003d94:	1dc394e3          	bne	t2,t3,8000475c <fail>
    80003d98:	07f00193          	li	gp,127
    80003d9c:	5b5a6337          	lui	t1,0x5b5a6
    80003da0:	9583031b          	addiw	t1,t1,-1704 # 5b5a5958 <_start-0x24a5a6a8>
    80003da4:	000063b7          	lui	t2,0x6
    80003da8:	b5a3839b          	addiw	t2,t2,-1190 # 5b5a <_start-0x7fffa4a6>
    80003dac:	02642ea3          	sw	t1,61(s0)
    80003db0:	03f41e03          	lh	t3,63(s0)
    80003db4:	1bc394e3          	bne	t2,t3,8000475c <fail>
    80003db8:	08000193          	li	gp,128
    80003dbc:	5f5e6337          	lui	t1,0x5f5e6
    80003dc0:	d5c3031b          	addiw	t1,t1,-676 # 5f5e5d5c <_start-0x20a1a2a4>
    80003dc4:	000063b7          	lui	t2,0x6
    80003dc8:	d5c3839b          	addiw	t2,t2,-676 # 5d5c <_start-0x7fffa2a4>
    80003dcc:	02642fa3          	sw	t1,63(s0)
    80003dd0:	03f45e03          	lhu	t3,63(s0)
    80003dd4:	19c394e3          	bne	t2,t3,8000475c <fail>
    80003dd8:	08100193          	li	gp,129
    80003ddc:	00ced337          	lui	t1,0xced
    80003de0:	ccb3031b          	addiw	t1,t1,-821 # cecccb <_start-0x7f313335>
    80003de4:	00d31313          	slli	t1,t1,0xd
    80003de8:	91930313          	addi	t1,t1,-1767
    80003dec:	00d31313          	slli	t1,t1,0xd
    80003df0:	b1330313          	addi	t1,t1,-1261
    80003df4:	00d31313          	slli	t1,t1,0xd
    80003df8:	16030313          	addi	t1,t1,352
    80003dfc:	06700393          	li	t2,103
    80003e00:	02643ca3          	sd	t1,57(s0)
    80003e04:	04040e03          	lb	t3,64(s0)
    80003e08:	15c39ae3          	bne	t2,t3,8000475c <fail>
    80003e0c:	08200193          	li	gp,130
    80003e10:	06f6e337          	lui	t1,0x6f6e
    80003e14:	6d73031b          	addiw	t1,t1,1751 # 6f6e6d7 <_start-0x79091929>
    80003e18:	00c31313          	slli	t1,t1,0xc
    80003e1c:	c6b30313          	addi	t1,t1,-917
    80003e20:	00c31313          	slli	t1,t1,0xc
    80003e24:	6a730313          	addi	t1,t1,1703
    80003e28:	00c31313          	slli	t1,t1,0xc
    80003e2c:	96830313          	addi	t1,t1,-1688
    80003e30:	06f00393          	li	t2,111
    80003e34:	02643d23          	sd	t1,58(s0)
    80003e38:	04144e03          	lbu	t3,65(s0)
    80003e3c:	13c390e3          	bne	t2,t3,8000475c <fail>
    80003e40:	08300193          	li	gp,131
    80003e44:	07776337          	lui	t1,0x7776
    80003e48:	7573031b          	addiw	t1,t1,1879 # 7776757 <_start-0x788898a9>
    80003e4c:	00c31313          	slli	t1,t1,0xc
    80003e50:	47330313          	addi	t1,t1,1139
    80003e54:	00c31313          	slli	t1,t1,0xc
    80003e58:	72730313          	addi	t1,t1,1831
    80003e5c:	00c31313          	slli	t1,t1,0xc
    80003e60:	17030313          	addi	t1,t1,368
    80003e64:	000073b7          	lui	t2,0x7
    80003e68:	5743839b          	addiw	t2,t2,1396 # 7574 <_start-0x7fff8a8c>
    80003e6c:	02643da3          	sd	t1,59(s0)
    80003e70:	03f41e03          	lh	t3,63(s0)
    80003e74:	0fc394e3          	bne	t2,t3,8000475c <fail>
    80003e78:	08400193          	li	gp,132
    80003e7c:	00ff0337          	lui	t1,0xff0
    80003e80:	cfb3031b          	addiw	t1,t1,-773 # fefcfb <_start-0x7f010305>
    80003e84:	00c31313          	slli	t1,t1,0xc
    80003e88:	f8f30313          	addi	t1,t1,-113
    80003e8c:	00c31313          	slli	t1,t1,0xc
    80003e90:	6f530313          	addi	t1,t1,1781
    80003e94:	00f31313          	slli	t1,t1,0xf
    80003e98:	97830313          	addi	t1,t1,-1672
    80003e9c:	000083b7          	lui	t2,0x8
    80003ea0:	c7b3839b          	addiw	t2,t2,-901 # 7c7b <_start-0x7fff8385>
    80003ea4:	02643e23          	sd	t1,60(s0)
    80003ea8:	03f45e03          	lhu	t3,63(s0)
    80003eac:	0bc398e3          	bne	t2,t3,8000475c <fail>
    80003eb0:	08500193          	li	gp,133
    80003eb4:	fff0f337          	lui	t1,0xfff0f
    80003eb8:	0d13031b          	addiw	t1,t1,209 # fffffffffff0f0d1 <freelist_head+0xffffffff7ff040c9>
    80003ebc:	00c31313          	slli	t1,t1,0xc
    80003ec0:	b0930313          	addi	t1,t1,-1271
    80003ec4:	01031313          	slli	t1,t1,0x10
    80003ec8:	70530313          	addi	t1,t1,1797
    80003ecc:	00f31313          	slli	t1,t1,0xf
    80003ed0:	18030313          	addi	t1,t1,384
    80003ed4:	838283b7          	lui	t2,0x83828
    80003ed8:	1803839b          	addiw	t2,t2,384 # ffffffff83828180 <freelist_head+0xffffffff0381d178>
    80003edc:	02643ea3          	sd	t1,61(s0)
    80003ee0:	03d42e03          	lw	t3,61(s0)
    80003ee4:	07c39ce3          	bne	t2,t3,8000475c <fail>
    80003ee8:	08600193          	li	gp,134
    80003eec:	ff1f2337          	lui	t1,0xff1f2
    80003ef0:	d1b3031b          	addiw	t1,t1,-741 # ffffffffff1f1d1b <freelist_head+0xffffffff7f1e6d13>
    80003ef4:	00d31313          	slli	t1,t1,0xd
    80003ef8:	32330313          	addi	t1,t1,803
    80003efc:	00e31313          	slli	t1,t1,0xe
    80003f00:	8a930313          	addi	t1,t1,-1879
    80003f04:	00c31313          	slli	t1,t1,0xc
    80003f08:	98830313          	addi	t1,t1,-1656
    80003f0c:	8b8a93b7          	lui	t2,0x8b8a9
    80003f10:	9883839b          	addiw	t2,t2,-1656 # ffffffff8b8a8988 <freelist_head+0xffffffff0b89d980>
    80003f14:	02643f23          	sd	t1,62(s0)
    80003f18:	03e42e03          	lw	t3,62(s0)
    80003f1c:	05c390e3          	bne	t2,t3,8000475c <fail>
    80003f20:	08700193          	li	gp,135
    80003f24:	ff2f3337          	lui	t1,0xff2f3
    80003f28:	d2b3031b          	addiw	t1,t1,-725 # ffffffffff2f2d2b <freelist_head+0xffffffff7f2e7d23>
    80003f2c:	00d31313          	slli	t1,t1,0xd
    80003f30:	52530313          	addi	t1,t1,1317
    80003f34:	00e31313          	slli	t1,t1,0xe
    80003f38:	92930313          	addi	t1,t1,-1751
    80003f3c:	00c31313          	slli	t1,t1,0xc
    80003f40:	19030313          	addi	t1,t1,400
    80003f44:	000943b7          	lui	t2,0x94
    80003f48:	9293839b          	addiw	t2,t2,-1751 # 93929 <_start-0x7ff6c6d7>
    80003f4c:	00c39393          	slli	t2,t2,0xc
    80003f50:	19038393          	addi	t2,t2,400
    80003f54:	02643fa3          	sd	t1,63(s0)
    80003f58:	03f46e03          	lwu	t3,63(s0)
    80003f5c:	01c390e3          	bne	t2,t3,8000475c <fail>
    80003f60:	08800193          	li	gp,136
    80003f64:	09800313          	li	t1,152
    80003f68:	ffffc3b7          	lui	t2,0xffffc
    80003f6c:	8983839b          	addiw	t2,t2,-1896 # ffffffffffffb898 <freelist_head+0xffffffff7fff0890>
    80003f70:	006400a3          	sb	t1,1(s0)
    80003f74:	00141e03          	lh	t3,1(s0)
    80003f78:	7fc39263          	bne	t2,t3,8000475c <fail>
    80003f7c:	08900193          	li	gp,137
    80003f80:	09900313          	li	t1,153
    80003f84:	0000a3b7          	lui	t2,0xa
    80003f88:	9983839b          	addiw	t2,t2,-1640 # 9998 <_start-0x7fff6668>
    80003f8c:	00640123          	sb	t1,2(s0)
    80003f90:	00145e03          	lhu	t3,1(s0)
    80003f94:	7dc39463          	bne	t2,t3,8000475c <fail>
    80003f98:	08a00193          	li	gp,138
    80003f9c:	0000a337          	lui	t1,0xa
    80003fa0:	b9a3031b          	addiw	t1,t1,-1126 # 9b9a <_start-0x7fff6466>
    80003fa4:	c8c0a3b7          	lui	t2,0xc8c0a
    80003fa8:	b9a3839b          	addiw	t2,t2,-1126 # ffffffffc8c09b9a <freelist_head+0xffffffff48bfeb92>
    80003fac:	006410a3          	sh	t1,1(s0)
    80003fb0:	00142e03          	lw	t3,1(s0)
    80003fb4:	7bc39463          	bne	t2,t3,8000475c <fail>
    80003fb8:	08b00193          	li	gp,139
    80003fbc:	0000a337          	lui	t1,0xa
    80003fc0:	d9c3031b          	addiw	t1,t1,-612 # 9d9c <_start-0x7fff6264>
    80003fc4:	d09da3b7          	lui	t2,0xd09da
    80003fc8:	c9b3839b          	addiw	t2,t2,-869 # ffffffffd09d9c9b <freelist_head+0xffffffff509cec93>
    80003fcc:	006411a3          	sh	t1,3(s0)
    80003fd0:	00242e03          	lw	t3,2(s0)
    80003fd4:	79c39463          	bne	t2,t3,8000475c <fail>
    80003fd8:	08c00193          	li	gp,140
    80003fdc:	0000a337          	lui	t1,0xa
    80003fe0:	f9e3031b          	addiw	t1,t1,-98 # 9f9e <_start-0x7fff6062>
    80003fe4:	9f9ea3b7          	lui	t2,0x9f9ea
    80003fe8:	d9c3839b          	addiw	t2,t2,-612 # ffffffff9f9e9d9c <freelist_head+0xffffffff1f9ded94>
    80003fec:	006412a3          	sh	t1,5(s0)
    80003ff0:	00342e03          	lw	t3,3(s0)
    80003ff4:	77c39463          	bne	t2,t3,8000475c <fail>
    80003ff8:	08d00193          	li	gp,141
    80003ffc:	0a000313          	li	t1,160
    80004000:	0004f3b7          	lui	t2,0x4f
    80004004:	ce53839b          	addiw	t2,t2,-795 # 4ece5 <_start-0x7ffb131b>
    80004008:	00d39393          	slli	t2,t2,0xd
    8000400c:	09a38393          	addi	t2,t2,154
    80004010:	00640123          	sb	t1,2(s0)
    80004014:	00146e03          	lwu	t3,1(s0)
    80004018:	75c39263          	bne	t2,t3,8000475c <fail>
    8000401c:	08e00193          	li	gp,142
    80004020:	0000a337          	lui	t1,0xa
    80004024:	2a13031b          	addiw	t1,t1,673 # a2a1 <_start-0x7fff5d5f>
    80004028:	0004f3b7          	lui	t2,0x4f
    8000402c:	5153839b          	addiw	t2,t2,1301 # 4f515 <_start-0x7ffb0aeb>
    80004030:	00d39393          	slli	t2,t2,0xd
    80004034:	1a038393          	addi	t2,t2,416
    80004038:	006411a3          	sh	t1,3(s0)
    8000403c:	00246e03          	lwu	t3,2(s0)
    80004040:	71c39e63          	bne	t2,t3,8000475c <fail>
    80004044:	08f00193          	li	gp,143
    80004048:	0000a337          	lui	t1,0xa
    8000404c:	4a33031b          	addiw	t1,t1,1187 # a4a3 <_start-0x7fff5b5d>
    80004050:	000523b7          	lui	t2,0x52
    80004054:	51d3839b          	addiw	t2,t2,1309 # 5251d <_start-0x7ffadae3>
    80004058:	00d39393          	slli	t2,t2,0xd
    8000405c:	2a138393          	addi	t2,t2,673
    80004060:	006412a3          	sh	t1,5(s0)
    80004064:	00346e03          	lwu	t3,3(s0)
    80004068:	6fc39a63          	bne	t2,t3,8000475c <fail>
    8000406c:	09000193          	li	gp,144
    80004070:	0a500313          	li	t1,165
    80004074:	ff0f03b7          	lui	t2,0xff0f0
    80004078:	5253839b          	addiw	t2,t2,1317 # ffffffffff0f0525 <freelist_head+0xffffffff7f0e551d>
    8000407c:	00c39393          	slli	t2,t2,0xc
    80004080:	1d138393          	addi	t2,t2,465
    80004084:	00c39393          	slli	t2,t2,0xc
    80004088:	50d38393          	addi	t2,t2,1293
    8000408c:	00d39393          	slli	t2,t2,0xd
    80004090:	59a38393          	addi	t2,t2,1434
    80004094:	00640123          	sb	t1,2(s0)
    80004098:	00143e03          	ld	t3,1(s0)
    8000409c:	6dc39063          	bne	t2,t3,8000475c <fail>
    800040a0:	09100193          	li	gp,145
    800040a4:	0000a337          	lui	t1,0xa
    800040a8:	7a63031b          	addiw	t1,t1,1958 # a7a6 <_start-0x7fff585a>
    800040ac:	ff8aa3b7          	lui	t2,0xff8aa
    800040b0:	e9b3839b          	addiw	t2,t2,-357 # ffffffffff8a9e9b <freelist_head+0xffffffff7f89ee93>
    800040b4:	00c39393          	slli	t2,t2,0xc
    800040b8:	92938393          	addi	t2,t2,-1751
    800040bc:	00d39393          	slli	t2,t2,0xd
    800040c0:	d1538393          	addi	t2,t2,-747
    800040c4:	00d39393          	slli	t2,t2,0xd
    800040c8:	1a538393          	addi	t2,t2,421
    800040cc:	006413a3          	sh	t1,7(s0)
    800040d0:	00243e03          	ld	t3,2(s0)
    800040d4:	69c39463          	bne	t2,t3,8000475c <fail>
    800040d8:	09200193          	li	gp,146
    800040dc:	0000b337          	lui	t1,0xb
    800040e0:	9a83031b          	addiw	t1,t1,-1624 # a9a8 <_start-0x7fff5658>
    800040e4:	fea6a3b7          	lui	t2,0xfea6a
    800040e8:	29f3839b          	addiw	t2,t2,671 # fffffffffea6a29f <freelist_head+0xffffffff7ea5f297>
    800040ec:	00c39393          	slli	t2,t2,0xc
    800040f0:	9a938393          	addi	t2,t2,-1623
    800040f4:	00d39393          	slli	t2,t2,0xd
    800040f8:	51d38393          	addi	t2,t2,1309
    800040fc:	00d39393          	slli	t2,t2,0xd
    80004100:	2a138393          	addi	t2,t2,673
    80004104:	006414a3          	sh	t1,9(s0)
    80004108:	00343e03          	ld	t3,3(s0)
    8000410c:	65c39863          	bne	t2,t3,8000475c <fail>
    80004110:	09300193          	li	gp,147
    80004114:	000ae337          	lui	t1,0xae
    80004118:	acb3031b          	addiw	t1,t1,-1333 # adacb <_start-0x7ff52535>
    8000411c:	00c31313          	slli	t1,t1,0xc
    80004120:	baa30313          	addi	t1,t1,-1110
    80004124:	fe4aa3b7          	lui	t2,0xfe4aa
    80004128:	a8b3839b          	addiw	t2,t2,-1397 # fffffffffe4a9a8b <freelist_head+0xffffffff7e49ea83>
    8000412c:	00c39393          	slli	t2,t2,0xc
    80004130:	dad38393          	addi	t2,t2,-595
    80004134:	00c39393          	slli	t2,t2,0xc
    80004138:	abb38393          	addi	t2,t2,-1349
    8000413c:	00c39393          	slli	t2,t2,0xc
    80004140:	aa238393          	addi	t2,t2,-1374
    80004144:	006422a3          	sw	t1,5(s0)
    80004148:	00443e03          	ld	t3,4(s0)
    8000414c:	61c39863          	bne	t2,t3,8000475c <fail>
    80004150:	09400193          	li	gp,148
    80004154:	000b2337          	lui	t1,0xb2
    80004158:	b0b3031b          	addiw	t1,t1,-1269 # b1b0b <_start-0x7ff4e4f5>
    8000415c:	00c31313          	slli	t1,t1,0xc
    80004160:	fae30313          	addi	t1,t1,-82
    80004164:	fff2f3b7          	lui	t2,0xfff2f
    80004168:	2593839b          	addiw	t2,t2,601 # fffffffffff2f259 <freelist_head+0xffffffff7ff24251>
    8000416c:	00d39393          	slli	t2,t2,0xd
    80004170:	b0b38393          	addi	t2,t2,-1269
    80004174:	01039393          	slli	t2,t2,0x10
    80004178:	aeb38393          	addi	t2,t2,-1301
    8000417c:	00c39393          	slli	t2,t2,0xc
    80004180:	baa38393          	addi	t2,t2,-1110
    80004184:	006423a3          	sw	t1,7(s0)
    80004188:	00543e03          	ld	t3,5(s0)
    8000418c:	5dc39863          	bne	t2,t3,8000475c <fail>
    80004190:	09500193          	li	gp,149
    80004194:	000b6337          	lui	t1,0xb6
    80004198:	b4b3031b          	addiw	t1,t1,-1205 # b5b4b <_start-0x7ff4a4b5>
    8000419c:	00c31313          	slli	t1,t1,0xc
    800041a0:	3b230313          	addi	t1,t1,946
    800041a4:	fe6b63b7          	lui	t2,0xfe6b6
    800041a8:	b4b3839b          	addiw	t2,t2,-1205 # fffffffffe6b5b4b <freelist_head+0xffffffff7e6aab43>
    800041ac:	00c39393          	slli	t2,t2,0xc
    800041b0:	3b338393          	addi	t2,t2,947
    800041b4:	00c39393          	slli	t2,t2,0xc
    800041b8:	afb38393          	addi	t2,t2,-1285
    800041bc:	00c39393          	slli	t2,t2,0xc
    800041c0:	eab38393          	addi	t2,t2,-341
    800041c4:	006424a3          	sw	t1,9(s0)
    800041c8:	00643e03          	ld	t3,6(s0)
    800041cc:	59c39863          	bne	t2,t3,8000475c <fail>
    800041d0:	09600193          	li	gp,150
    800041d4:	000ba337          	lui	t1,0xba
    800041d8:	b8b3031b          	addiw	t1,t1,-1141 # b9b8b <_start-0x7ff46475>
    800041dc:	00c31313          	slli	t1,t1,0xc
    800041e0:	7b630313          	addi	t1,t1,1974
    800041e4:	fee6e3b7          	lui	t2,0xfee6e
    800041e8:	2df3839b          	addiw	t2,t2,735 # fffffffffee6e2df <freelist_head+0xffffffff7ee632d7>
    800041ec:	00c39393          	slli	t2,t2,0xc
    800041f0:	dad38393          	addi	t2,t2,-595
    800041f4:	00e39393          	slli	t2,t2,0xe
    800041f8:	b2b38393          	addi	t2,t2,-1237
    800041fc:	00c39393          	slli	t2,t2,0xc
    80004200:	fae38393          	addi	t2,t2,-82
    80004204:	006425a3          	sw	t1,11(s0)
    80004208:	00743e03          	ld	t3,7(s0)
    8000420c:	55c39863          	bne	t2,t3,8000475c <fail>
    80004210:	09700193          	li	gp,151
    80004214:	0ba00313          	li	t1,186
    80004218:	000033b7          	lui	t2,0x3
    8000421c:	1ba3839b          	addiw	t2,t2,442 # 31ba <_start-0x7fffce46>
    80004220:	00640fa3          	sb	t1,31(s0)
    80004224:	01f41e03          	lh	t3,31(s0)
    80004228:	53c39a63          	bne	t2,t3,8000475c <fail>
    8000422c:	09800193          	li	gp,152
    80004230:	0bb00313          	li	t1,187
    80004234:	0000c3b7          	lui	t2,0xc
    80004238:	bba3839b          	addiw	t2,t2,-1094 # bbba <_start-0x7fff4446>
    8000423c:	02640023          	sb	t1,32(s0)
    80004240:	01f45e03          	lhu	t3,31(s0)
    80004244:	51c39c63          	bne	t2,t3,8000475c <fail>
    80004248:	09900193          	li	gp,153
    8000424c:	0000c337          	lui	t1,0xc
    80004250:	dbc3031b          	addiw	t1,t1,-580 # bdbc <_start-0x7fff4244>
    80004254:	32bbc3b7          	lui	t2,0x32bbc
    80004258:	dbc3839b          	addiw	t2,t2,-580 # 32bbbdbc <_start-0x4d444244>
    8000425c:	00641f23          	sh	t1,30(s0)
    80004260:	01e42e03          	lw	t3,30(s0)
    80004264:	4fc39c63          	bne	t2,t3,8000475c <fail>
    80004268:	09a00193          	li	gp,154
    8000426c:	0000c337          	lui	t1,0xc
    80004270:	fbe3031b          	addiw	t1,t1,-66 # bfbe <_start-0x7fff4042>
    80004274:	32bfc3b7          	lui	t2,0x32bfc
    80004278:	ebc3839b          	addiw	t2,t2,-324 # 32bfbebc <_start-0x4d404144>
    8000427c:	00641fa3          	sh	t1,31(s0)
    80004280:	01e42e03          	lw	t3,30(s0)
    80004284:	4dc39c63          	bne	t2,t3,8000475c <fail>
    80004288:	09b00193          	li	gp,155
    8000428c:	0000c337          	lui	t1,0xc
    80004290:	1c03031b          	addiw	t1,t1,448 # c1c0 <_start-0x7fff3e40>
    80004294:	c1c0c3b7          	lui	t2,0xc1c0c
    80004298:	ebc3839b          	addiw	t2,t2,-324 # ffffffffc1c0bebc <freelist_head+0xffffffff41c00eb4>
    8000429c:	02641023          	sh	t1,32(s0)
    800042a0:	01e42e03          	lw	t3,30(s0)
    800042a4:	4bc39c63          	bne	t2,t3,8000475c <fail>
    800042a8:	09c00193          	li	gp,156
    800042ac:	0c200313          	li	t1,194
    800042b0:	33c1c3b7          	lui	t2,0x33c1c
    800042b4:	2be3839b          	addiw	t2,t2,702 # 33c1c2be <_start-0x4c3e3d42>
    800042b8:	02640023          	sb	t1,32(s0)
    800042bc:	01f46e03          	lwu	t3,31(s0)
    800042c0:	49c39e63          	bne	t2,t3,8000475c <fail>
    800042c4:	09d00193          	li	gp,157
    800042c8:	0000c337          	lui	t1,0xc
    800042cc:	4c33031b          	addiw	t1,t1,1219 # c4c3 <_start-0x7fff3b3d>
    800042d0:	000313b7          	lui	t2,0x31
    800042d4:	30f3839b          	addiw	t2,t2,783 # 3130f <_start-0x7ffcecf1>
    800042d8:	00e39393          	slli	t2,t2,0xe
    800042dc:	c2038393          	addi	t2,t2,-992
    800042e0:	00641fa3          	sh	t1,31(s0)
    800042e4:	01d46e03          	lwu	t3,29(s0)
    800042e8:	47c39a63          	bne	t2,t3,8000475c <fail>
    800042ec:	09e00193          	li	gp,158
    800042f0:	0000c337          	lui	t1,0xc
    800042f4:	6c53031b          	addiw	t1,t1,1733 # c6c5 <_start-0x7fff393b>
    800042f8:	000323b7          	lui	t2,0x32
    800042fc:	b173839b          	addiw	t2,t2,-1257 # 31b17 <_start-0x7ffce4e9>
    80004300:	00e39393          	slli	t2,t2,0xe
    80004304:	3bc38393          	addi	t2,t2,956
    80004308:	02641023          	sh	t1,32(s0)
    8000430c:	01e46e03          	lwu	t3,30(s0)
    80004310:	45c39663          	bne	t2,t3,8000475c <fail>
    80004314:	09f00193          	li	gp,159
    80004318:	0c700313          	li	t1,199
    8000431c:	fff1f3b7          	lui	t2,0xfff1f
    80004320:	0ef3839b          	addiw	t2,t2,239 # fffffffffff1f0ef <freelist_head+0xffffffff7ff140e7>
    80004324:	00f39393          	slli	t2,t2,0xf
    80004328:	40338393          	addi	t2,t2,1027
    8000432c:	00f39393          	slli	t2,t2,0xf
    80004330:	10138393          	addi	t2,t2,257
    80004334:	00c39393          	slli	t2,t2,0xc
    80004338:	80038393          	addi	t2,t2,-2048
    8000433c:	02640023          	sb	t1,32(s0)
    80004340:	01943e03          	ld	t3,25(s0)
    80004344:	41c39c63          	bne	t2,t3,8000475c <fail>
    80004348:	0a000193          	li	gp,160
    8000434c:	0000d337          	lui	t1,0xd
    80004350:	9c83031b          	addiw	t1,t1,-1592 # c9c8 <_start-0x7fff3638>
    80004354:	fff8e3b7          	lui	t2,0xfff8e
    80004358:	9393839b          	addiw	t2,t2,-1735 # fffffffffff8d939 <freelist_head+0xffffffff7ff82931>
    8000435c:	00e39393          	slli	t2,t2,0xe
    80004360:	5e138393          	addi	t2,t2,1505
    80004364:	01139393          	slli	t2,t2,0x11
    80004368:	18138393          	addi	t2,t2,385
    8000436c:	00c39393          	slli	t2,t2,0xc
    80004370:	00838393          	addi	t2,t2,8
    80004374:	00641fa3          	sh	t1,31(s0)
    80004378:	01a43e03          	ld	t3,26(s0)
    8000437c:	3fc39063          	bne	t2,t3,8000475c <fail>
    80004380:	0a100193          	li	gp,161
    80004384:	0000d337          	lui	t1,0xd
    80004388:	bca3031b          	addiw	t1,t1,-1078 # cbca <_start-0x7fff3436>
    8000438c:	00cf23b7          	lui	t2,0xcf2
    80004390:	b2f3839b          	addiw	t2,t2,-1233 # cf1b2f <_start-0x7f30e4d1>
    80004394:	00c39393          	slli	t2,t2,0xc
    80004398:	2af38393          	addi	t2,t2,687
    8000439c:	00d39393          	slli	t2,t2,0xd
    800043a0:	10138393          	addi	t2,t2,257
    800043a4:	00d39393          	slli	t2,t2,0xd
    800043a8:	81038393          	addi	t2,t2,-2032
    800043ac:	00641fa3          	sh	t1,31(s0)
    800043b0:	01b43e03          	ld	t3,27(s0)
    800043b4:	3bc39463          	bne	t2,t3,8000475c <fail>
    800043b8:	0a200193          	li	gp,162
    800043bc:	000d0337          	lui	t1,0xd0
    800043c0:	ced3031b          	addiw	t1,t1,-787 # cfced <_start-0x7ff30313>
    800043c4:	00c31313          	slli	t1,t1,0xc
    800043c8:	dcc30313          	addi	t1,t1,-564
    800043cc:	ff3f43b7          	lui	t2,0xff3f4
    800043d0:	b373839b          	addiw	t2,t2,-1225 # ffffffffff3f3b37 <freelist_head+0xffffffff7f3e8b2f>
    800043d4:	00d39393          	slli	t2,t2,0xd
    800043d8:	66538393          	addi	t2,t2,1637
    800043dc:	00c39393          	slli	t2,t2,0xc
    800043e0:	5e138393          	addi	t2,t2,1505
    800043e4:	00d39393          	slli	t2,t2,0xd
    800043e8:	01838393          	addi	t2,t2,24
    800043ec:	02642023          	sw	t1,32(s0)
    800043f0:	01c43e03          	ld	t3,28(s0)
    800043f4:	37c39463          	bne	t2,t3,8000475c <fail>
    800043f8:	0a300193          	li	gp,163
    800043fc:	000d4337          	lui	t1,0xd4
    80004400:	d2d3031b          	addiw	t1,t1,-723 # d3d2d <_start-0x7ff2c2d3>
    80004404:	00c31313          	slli	t1,t1,0xc
    80004408:	1d030313          	addi	t1,t1,464
    8000440c:	000d73b7          	lui	t2,0xd7
    80004410:	3f53839b          	addiw	t2,t2,1013 # d73f5 <_start-0x7ff28c0b>
    80004414:	00e39393          	slli	t2,t2,0xe
    80004418:	d2d38393          	addi	t2,t2,-723
    8000441c:	00e39393          	slli	t2,t2,0xe
    80004420:	74338393          	addi	t2,t2,1859
    80004424:	00e39393          	slli	t2,t2,0xe
    80004428:	c2038393          	addi	t2,t2,-992
    8000442c:	00642fa3          	sw	t1,31(s0)
    80004430:	01d43e03          	ld	t3,29(s0)
    80004434:	33c39463          	bne	t2,t3,8000475c <fail>
    80004438:	0a400193          	li	gp,164
    8000443c:	000d8337          	lui	t1,0xd8
    80004440:	d6d3031b          	addiw	t1,t1,-659 # d7d6d <_start-0x7ff28293>
    80004444:	00c31313          	slli	t1,t1,0xc
    80004448:	5d430313          	addi	t1,t1,1492
    8000444c:	000363b7          	lui	t2,0x36
    80004450:	35d3839b          	addiw	t2,t2,861 # 3635d <_start-0x7ffc9ca3>
    80004454:	01139393          	slli	t2,t2,0x11
    80004458:	a7b38393          	addi	t2,t2,-1413
    8000445c:	00f39393          	slli	t2,t2,0xf
    80004460:	d6d38393          	addi	t2,t2,-659
    80004464:	00c39393          	slli	t2,t2,0xc
    80004468:	5d438393          	addi	t2,t2,1492
    8000446c:	00642f23          	sw	t1,30(s0)
    80004470:	01e43e03          	ld	t3,30(s0)
    80004474:	2fc39463          	bne	t2,t3,8000475c <fail>
    80004478:	0a500193          	li	gp,165
    8000447c:	0006e337          	lui	t1,0x6e
    80004480:	ed73031b          	addiw	t1,t1,-297 # 6ded7 <_start-0x7ff92129>
    80004484:	00d31313          	slli	t1,t1,0xd
    80004488:	9d830313          	addi	t1,t1,-1576
    8000448c:	00dce3b7          	lui	t2,0xdce
    80004490:	8d73839b          	addiw	t2,t2,-1833 # dcd8d7 <_start-0x7f232729>
    80004494:	00c39393          	slli	t2,t2,0xc
    80004498:	3f538393          	addi	t2,t2,1013
    8000449c:	00d39393          	slli	t2,t2,0xd
    800044a0:	ebf38393          	addi	t2,t2,-321
    800044a4:	00d39393          	slli	t2,t2,0xd
    800044a8:	bda38393          	addi	t2,t2,-1062
    800044ac:	00642ea3          	sw	t1,29(s0)
    800044b0:	01f43e03          	ld	t3,31(s0)
    800044b4:	2bc39463          	bne	t2,t3,8000475c <fail>
    800044b8:	0a600193          	li	gp,166
    800044bc:	0dc00313          	li	t1,220
    800044c0:	ffff93b7          	lui	t2,0xffff9
    800044c4:	1dc3839b          	addiw	t2,t2,476 # ffffffffffff91dc <freelist_head+0xffffffff7ffee1d4>
    800044c8:	02640fa3          	sb	t1,63(s0)
    800044cc:	03f41e03          	lh	t3,63(s0)
    800044d0:	29c39663          	bne	t2,t3,8000475c <fail>
    800044d4:	0a700193          	li	gp,167
    800044d8:	0dd00313          	li	t1,221
    800044dc:	0000e3b7          	lui	t2,0xe
    800044e0:	ddc3839b          	addiw	t2,t2,-548 # dddc <_start-0x7fff2224>
    800044e4:	04640023          	sb	t1,64(s0)
    800044e8:	03f45e03          	lhu	t3,63(s0)
    800044ec:	27c39863          	bne	t2,t3,8000475c <fail>
    800044f0:	0a800193          	li	gp,168
    800044f4:	0000e337          	lui	t1,0xe
    800044f8:	fde3031b          	addiw	t1,t1,-34 # dfde <_start-0x7fff2022>
    800044fc:	92dde3b7          	lui	t2,0x92dde
    80004500:	fde3839b          	addiw	t2,t2,-34 # ffffffff92dddfde <freelist_head+0xffffffff12dd2fd6>
    80004504:	02641f23          	sh	t1,62(s0)
    80004508:	03e42e03          	lw	t3,62(s0)
    8000450c:	25c39863          	bne	t2,t3,8000475c <fail>
    80004510:	0a900193          	li	gp,169
    80004514:	0000e337          	lui	t1,0xe
    80004518:	1e03031b          	addiw	t1,t1,480 # e1e0 <_start-0x7fff1e20>
    8000451c:	92e1e3b7          	lui	t2,0x92e1e
    80004520:	0de3839b          	addiw	t2,t2,222 # ffffffff92e1e0de <freelist_head+0xffffffff12e130d6>
    80004524:	02641fa3          	sh	t1,63(s0)
    80004528:	03e42e03          	lw	t3,62(s0)
    8000452c:	23c39863          	bne	t2,t3,8000475c <fail>
    80004530:	0aa00193          	li	gp,170
    80004534:	0000e337          	lui	t1,0xe
    80004538:	3e23031b          	addiw	t1,t1,994 # e3e2 <_start-0x7fff1c1e>
    8000453c:	e3e2e3b7          	lui	t2,0xe3e2e
    80004540:	0de3839b          	addiw	t2,t2,222 # ffffffffe3e2e0de <freelist_head+0xffffffff63e230d6>
    80004544:	04641023          	sh	t1,64(s0)
    80004548:	03e42e03          	lw	t3,62(s0)
    8000454c:	21c39863          	bne	t2,t3,8000475c <fail>
    80004550:	0ab00193          	li	gp,171
    80004554:	0e400313          	li	t1,228
    80004558:	0004a3b7          	lui	t2,0x4a
    8000455c:	f1f3839b          	addiw	t2,t2,-225 # 49f1f <_start-0x7ffb60e1>
    80004560:	00d39393          	slli	t2,t2,0xd
    80004564:	4e038393          	addi	t2,t2,1248
    80004568:	04640023          	sb	t1,64(s0)
    8000456c:	03f46e03          	lwu	t3,63(s0)
    80004570:	1fc39663          	bne	t2,t3,8000475c <fail>
    80004574:	0ac00193          	li	gp,172
    80004578:	0000e337          	lui	t1,0xe
    8000457c:	6e53031b          	addiw	t1,t1,1765 # e6e5 <_start-0x7fff191b>
    80004580:	000733b7          	lui	t2,0x73
    80004584:	72f3839b          	addiw	t2,t2,1839 # 7372f <_start-0x7ff8c8d1>
    80004588:	00d39393          	slli	t2,t2,0xd
    8000458c:	e8038393          	addi	t2,t2,-384
    80004590:	02641fa3          	sh	t1,63(s0)
    80004594:	03d46e03          	lwu	t3,61(s0)
    80004598:	1dc39263          	bne	t2,t3,8000475c <fail>
    8000459c:	0ad00193          	li	gp,173
    800045a0:	0000f337          	lui	t1,0xf
    800045a4:	8e73031b          	addiw	t1,t1,-1817 # e8e7 <_start-0x7fff1719>
    800045a8:	000743b7          	lui	t2,0x74
    800045ac:	73f3839b          	addiw	t2,t2,1855 # 7473f <_start-0x7ff8b8c1>
    800045b0:	00d39393          	slli	t2,t2,0xd
    800045b4:	5de38393          	addi	t2,t2,1502
    800045b8:	04641023          	sh	t1,64(s0)
    800045bc:	03e46e03          	lwu	t3,62(s0)
    800045c0:	19c39e63          	bne	t2,t3,8000475c <fail>
    800045c4:	0ae00193          	li	gp,174
    800045c8:	0e900313          	li	t1,233
    800045cc:	ffd3d3b7          	lui	t2,0xffd3d
    800045d0:	bbd3839b          	addiw	t2,t2,-1091 # ffffffffffd3cbbd <freelist_head+0xffffffff7fd31bb5>
    800045d4:	00c39393          	slli	t2,t2,0xc
    800045d8:	00f38393          	addi	t2,t2,15
    800045dc:	00f39393          	slli	t2,t2,0xf
    800045e0:	70738393          	addi	t2,t2,1799
    800045e4:	00c39393          	slli	t2,t2,0xc
    800045e8:	86038393          	addi	t2,t2,-1952
    800045ec:	04640023          	sb	t1,64(s0)
    800045f0:	03943e03          	ld	t3,57(s0)
    800045f4:	17c39463          	bne	t2,t3,8000475c <fail>
    800045f8:	0af00193          	li	gp,175
    800045fc:	0000f337          	lui	t1,0xf
    80004600:	bea3031b          	addiw	t1,t1,-1046 # ebea <_start-0x7fff1416>
    80004604:	d1d7d3b7          	lui	t2,0xd1d7d
    80004608:	5bd3839b          	addiw	t2,t2,1469 # ffffffffd1d7d5bd <freelist_head+0xffffffff51d725b5>
    8000460c:	01339393          	slli	t2,t2,0x13
    80004610:	78738393          	addi	t2,t2,1927
    80004614:	00c39393          	slli	t2,t2,0xc
    80004618:	06838393          	addi	t2,t2,104
    8000461c:	02641fa3          	sh	t1,63(s0)
    80004620:	03a43e03          	ld	t3,58(s0)
    80004624:	13c39c63          	bne	t2,t3,8000475c <fail>
    80004628:	0b000193          	li	gp,176
    8000462c:	0000f337          	lui	t1,0xf
    80004630:	dec3031b          	addiw	t1,t1,-532 # edec <_start-0x7fff1214>
    80004634:	ffc9f3b7          	lui	t2,0xffc9f
    80004638:	4773839b          	addiw	t2,t2,1143 # ffffffffffc9f477 <freelist_head+0xffffffff7fc9446f>
    8000463c:	00c39393          	slli	t2,t2,0xc
    80004640:	f6738393          	addi	t2,t2,-153
    80004644:	00e39393          	slli	t2,t2,0xe
    80004648:	d0138393          	addi	t2,t2,-767
    8000464c:	00f39393          	slli	t2,t2,0xf
    80004650:	87038393          	addi	t2,t2,-1936
    80004654:	02641fa3          	sh	t1,63(s0)
    80004658:	03b43e03          	ld	t3,59(s0)
    8000465c:	11c39063          	bne	t2,t3,8000475c <fail>
    80004660:	0b100193          	li	gp,177
    80004664:	000f2337          	lui	t1,0xf2
    80004668:	f0f3031b          	addiw	t1,t1,-241 # f1f0f <_start-0x7ff0e0f1>
    8000466c:	00c31313          	slli	t1,t1,0xc
    80004670:	fee30313          	addi	t1,t1,-18
    80004674:	ffff23b7          	lui	t2,0xffff2
    80004678:	f0f3839b          	addiw	t2,t2,-241 # ffffffffffff1f0f <freelist_head+0xffffffff7ffe6f07>
    8000467c:	01039393          	slli	t2,t2,0x10
    80004680:	eef38393          	addi	t2,t2,-273
    80004684:	00d39393          	slli	t2,t2,0xd
    80004688:	9bd38393          	addi	t2,t2,-1603
    8000468c:	00f39393          	slli	t2,t2,0xf
    80004690:	07838393          	addi	t2,t2,120
    80004694:	04642023          	sw	t1,64(s0)
    80004698:	03c43e03          	ld	t3,60(s0)
    8000469c:	0dc39063          	bne	t2,t3,8000475c <fail>
    800046a0:	0b200193          	li	gp,178
    800046a4:	000f6337          	lui	t1,0xf6
    800046a8:	f4f3031b          	addiw	t1,t1,-177 # f5f4f <_start-0x7ff0a0b1>
    800046ac:	00c31313          	slli	t1,t1,0xc
    800046b0:	3f230313          	addi	t1,t1,1010
    800046b4:	ffcb03b7          	lui	t2,0xffcb0
    800046b8:	8fb3839b          	addiw	t2,t2,-1797 # ffffffffffcaf8fb <freelist_head+0xffffffff7fca48f3>
    800046bc:	00f39393          	slli	t2,t2,0xf
    800046c0:	d3d38393          	addi	t2,t2,-707
    800046c4:	00d39393          	slli	t2,t2,0xd
    800046c8:	f9738393          	addi	t2,t2,-105
    800046cc:	00d39393          	slli	t2,t2,0xd
    800046d0:	e8038393          	addi	t2,t2,-384
    800046d4:	02642fa3          	sw	t1,63(s0)
    800046d8:	03d43e03          	ld	t3,61(s0)
    800046dc:	09c39063          	bne	t2,t3,8000475c <fail>
    800046e0:	0b300193          	li	gp,179
    800046e4:	000fa337          	lui	t1,0xfa
    800046e8:	f8f3031b          	addiw	t1,t1,-113 # f9f8f <_start-0x7ff06071>
    800046ec:	00c31313          	slli	t1,t1,0xc
    800046f0:	7f630313          	addi	t1,t1,2038
    800046f4:	ffcb53b7          	lui	t2,0xffcb5
    800046f8:	af93839b          	addiw	t2,t2,-1287 # ffffffffffcb4af9 <freelist_head+0xffffffff7fca9af1>
    800046fc:	01039393          	slli	t2,t2,0x10
    80004700:	afd38393          	addi	t2,t2,-1283
    80004704:	00d39393          	slli	t2,t2,0xd
    80004708:	f8f38393          	addi	t2,t2,-113
    8000470c:	00c39393          	slli	t2,t2,0xc
    80004710:	7f638393          	addi	t2,t2,2038
    80004714:	02642f23          	sw	t1,62(s0)
    80004718:	03e43e03          	ld	t3,62(s0)
    8000471c:	05c39063          	bne	t2,t3,8000475c <fail>
    80004720:	0b400193          	li	gp,180
    80004724:	00010337          	lui	t1,0x10
    80004728:	dfd3031b          	addiw	t1,t1,-515 # fdfd <_start-0x7fff0203>
    8000472c:	01031313          	slli	t1,t1,0x10
    80004730:	bfa30313          	addi	t1,t1,-1030
    80004734:	cbcb53b7          	lui	t2,0xcbcb5
    80004738:	af93839b          	addiw	t2,t2,-1287 # ffffffffcbcb4af9 <freelist_head+0xffffffff4bca9af1>
    8000473c:	01039393          	slli	t2,t2,0x10
    80004740:	afd38393          	addi	t2,t2,-1283
    80004744:	01139393          	slli	t2,t2,0x11
    80004748:	dfc38393          	addi	t2,t2,-516
    8000474c:	02642ea3          	sw	t1,61(s0)
    80004750:	03f43e03          	ld	t3,63(s0)
    80004754:	01c39463          	bne	t2,t3,8000475c <fail>
    80004758:	00301a63          	bne	zero,gp,8000476c <pass>

000000008000475c <fail>:
    8000475c:	00119513          	slli	a0,gp,0x1
    80004760:	00050063          	beqz	a0,80004760 <fail+0x4>
    80004764:	00156513          	ori	a0,a0,1
    80004768:	00000073          	ecall

000000008000476c <pass>:
    8000476c:	00100513          	li	a0,1
    80004770:	00000073          	ecall
    80004774:	c0001073          	unimp
