
build/elf/rv64ui-v-sb：     文件格式 elf64-littleriscv


Disassembly of section .text.init:

0000000080000000 <_start>:
    80000000:	00c0006f          	j	8000000c <handle_reset>

0000000080000004 <nmi_vector>:
    80000004:	2bc0206f          	j	800022c0 <wtf>

0000000080000008 <trap_vector>:
    80000008:	2b80206f          	j	800022c0 <wtf>

000000008000000c <handle_reset>:
    8000000c:	00000093          	li	ra,0
    80000010:	00000113          	li	sp,0
    80000014:	00000193          	li	gp,0
    80000018:	00000213          	li	tp,0
    8000001c:	00000293          	li	t0,0
    80000020:	00000313          	li	t1,0
    80000024:	00000393          	li	t2,0
    80000028:	00000413          	li	s0,0
    8000002c:	00000493          	li	s1,0
    80000030:	00000513          	li	a0,0
    80000034:	00000593          	li	a1,0
    80000038:	00000613          	li	a2,0
    8000003c:	00000693          	li	a3,0
    80000040:	00000713          	li	a4,0
    80000044:	00000793          	li	a5,0
    80000048:	00000813          	li	a6,0
    8000004c:	00000893          	li	a7,0
    80000050:	00000913          	li	s2,0
    80000054:	00000993          	li	s3,0
    80000058:	00000a13          	li	s4,0
    8000005c:	00000a93          	li	s5,0
    80000060:	00000b13          	li	s6,0
    80000064:	00000b93          	li	s7,0
    80000068:	00000c13          	li	s8,0
    8000006c:	00000c93          	li	s9,0
    80000070:	00000d13          	li	s10,0
    80000074:	00000d93          	li	s11,0
    80000078:	00000e13          	li	t3,0
    8000007c:	00000e93          	li	t4,0
    80000080:	00000f13          	li	t5,0
    80000084:	00000f93          	li	t6,0
    80000088:	00000297          	auipc	t0,0x0
    8000008c:	f8028293          	addi	t0,t0,-128 # 80000008 <trap_vector>
    80000090:	30529073          	csrw	mtvec,t0
    80000094:	0000e117          	auipc	sp,0xe
    80000098:	e4c10113          	addi	sp,sp,-436 # 8000dee0 <freelist_head+0x3ed8>
    8000009c:	f14022f3          	csrr	t0,mhartid
    800000a0:	00c29293          	slli	t0,t0,0xc
    800000a4:	00510133          	add	sp,sp,t0
    800000a8:	34011073          	csrw	mscratch,sp
    800000ac:	225020ef          	jal	ra,80002ad0 <extra_boot>
    800000b0:	00003517          	auipc	a0,0x3
    800000b4:	a3450513          	addi	a0,a0,-1484 # 80002ae4 <userstart>
    800000b8:	7cc0206f          	j	80002884 <vm_boot>

00000000800000bc <pop_tf>:
    800000bc:	10853283          	ld	t0,264(a0)
    800000c0:	14129073          	csrw	sepc,t0
    800000c4:	00853083          	ld	ra,8(a0)
    800000c8:	01053103          	ld	sp,16(a0)
    800000cc:	01853183          	ld	gp,24(a0)
    800000d0:	02053203          	ld	tp,32(a0)
    800000d4:	02853283          	ld	t0,40(a0)
    800000d8:	03053303          	ld	t1,48(a0)
    800000dc:	03853383          	ld	t2,56(a0)
    800000e0:	04053403          	ld	s0,64(a0)
    800000e4:	04853483          	ld	s1,72(a0)
    800000e8:	05853583          	ld	a1,88(a0)
    800000ec:	06053603          	ld	a2,96(a0)
    800000f0:	06853683          	ld	a3,104(a0)
    800000f4:	07053703          	ld	a4,112(a0)
    800000f8:	07853783          	ld	a5,120(a0)
    800000fc:	08053803          	ld	a6,128(a0)
    80000100:	08853883          	ld	a7,136(a0)
    80000104:	09053903          	ld	s2,144(a0)
    80000108:	09853983          	ld	s3,152(a0)
    8000010c:	0a053a03          	ld	s4,160(a0)
    80000110:	0a853a83          	ld	s5,168(a0)
    80000114:	0b053b03          	ld	s6,176(a0)
    80000118:	0b853b83          	ld	s7,184(a0)
    8000011c:	0c053c03          	ld	s8,192(a0)
    80000120:	0c853c83          	ld	s9,200(a0)
    80000124:	0d053d03          	ld	s10,208(a0)
    80000128:	0d853d83          	ld	s11,216(a0)
    8000012c:	0e053e03          	ld	t3,224(a0)
    80000130:	0e853e83          	ld	t4,232(a0)
    80000134:	0f053f03          	ld	t5,240(a0)
    80000138:	0f853f83          	ld	t6,248(a0)
    8000013c:	05053503          	ld	a0,80(a0)
    80000140:	10200073          	sret

0000000080000144 <trap_entry>:
    80000144:	14011173          	csrrw	sp,sscratch,sp
    80000148:	00113423          	sd	ra,8(sp)
    8000014c:	00313c23          	sd	gp,24(sp)
    80000150:	02413023          	sd	tp,32(sp)
    80000154:	02513423          	sd	t0,40(sp)
    80000158:	02613823          	sd	t1,48(sp)
    8000015c:	02713c23          	sd	t2,56(sp)
    80000160:	04813023          	sd	s0,64(sp)
    80000164:	04913423          	sd	s1,72(sp)
    80000168:	04a13823          	sd	a0,80(sp)
    8000016c:	04b13c23          	sd	a1,88(sp)
    80000170:	06c13023          	sd	a2,96(sp)
    80000174:	06d13423          	sd	a3,104(sp)
    80000178:	06e13823          	sd	a4,112(sp)
    8000017c:	06f13c23          	sd	a5,120(sp)
    80000180:	09013023          	sd	a6,128(sp)
    80000184:	09113423          	sd	a7,136(sp)
    80000188:	09213823          	sd	s2,144(sp)
    8000018c:	09313c23          	sd	s3,152(sp)
    80000190:	0b413023          	sd	s4,160(sp)
    80000194:	0b513423          	sd	s5,168(sp)
    80000198:	0b613823          	sd	s6,176(sp)
    8000019c:	0b713c23          	sd	s7,184(sp)
    800001a0:	0d813023          	sd	s8,192(sp)
    800001a4:	0d913423          	sd	s9,200(sp)
    800001a8:	0da13823          	sd	s10,208(sp)
    800001ac:	0db13c23          	sd	s11,216(sp)
    800001b0:	0fc13023          	sd	t3,224(sp)
    800001b4:	0fd13423          	sd	t4,232(sp)
    800001b8:	0fe13823          	sd	t5,240(sp)
    800001bc:	0ff13c23          	sd	t6,248(sp)
    800001c0:	140112f3          	csrrw	t0,sscratch,sp
    800001c4:	00513823          	sd	t0,16(sp)
    800001c8:	100022f3          	csrr	t0,sstatus
    800001cc:	10513023          	sd	t0,256(sp)
    800001d0:	141022f3          	csrr	t0,sepc
    800001d4:	10513423          	sd	t0,264(sp)
    800001d8:	143022f3          	csrr	t0,stval
    800001dc:	10513823          	sd	t0,272(sp)
    800001e0:	142022f3          	csrr	t0,scause
    800001e4:	10513c23          	sd	t0,280(sp)
    800001e8:	00010513          	mv	a0,sp
    800001ec:	4140206f          	j	80002600 <handle_trap>

Disassembly of section .text:

0000000080002000 <memcpy>:
    80002000:	00b567b3          	or	a5,a0,a1
    80002004:	00c7e7b3          	or	a5,a5,a2
    80002008:	0077f793          	andi	a5,a5,7
    8000200c:	00c506b3          	add	a3,a0,a2
    80002010:	02078463          	beqz	a5,80002038 <memcpy+0x38>
    80002014:	00c58633          	add	a2,a1,a2
    80002018:	00050793          	mv	a5,a0
    8000201c:	02d57e63          	bgeu	a0,a3,80002058 <memcpy+0x58>
    80002020:	0005c703          	lbu	a4,0(a1)
    80002024:	00158593          	addi	a1,a1,1
    80002028:	00178793          	addi	a5,a5,1
    8000202c:	fee78fa3          	sb	a4,-1(a5)
    80002030:	fec598e3          	bne	a1,a2,80002020 <memcpy+0x20>
    80002034:	00008067          	ret
    80002038:	fed57ee3          	bgeu	a0,a3,80002034 <memcpy+0x34>
    8000203c:	00050793          	mv	a5,a0
    80002040:	0005b703          	ld	a4,0(a1)
    80002044:	00878793          	addi	a5,a5,8
    80002048:	00858593          	addi	a1,a1,8
    8000204c:	fee7bc23          	sd	a4,-8(a5)
    80002050:	fed7e8e3          	bltu	a5,a3,80002040 <memcpy+0x40>
    80002054:	00008067          	ret
    80002058:	00008067          	ret

000000008000205c <memset>:
    8000205c:	ff010113          	addi	sp,sp,-16
    80002060:	00c567b3          	or	a5,a0,a2
    80002064:	00813023          	sd	s0,0(sp)
    80002068:	00113423          	sd	ra,8(sp)
    8000206c:	0077f793          	andi	a5,a5,7
    80002070:	00050413          	mv	s0,a0
    80002074:	00c50733          	add	a4,a0,a2
    80002078:	02078263          	beqz	a5,8000209c <memset+0x40>
    8000207c:	00e57663          	bgeu	a0,a4,80002088 <memset+0x2c>
    80002080:	0ff5f593          	zext.b	a1,a1
    80002084:	fd9ff0ef          	jal	ra,8000205c <memset>
    80002088:	00813083          	ld	ra,8(sp)
    8000208c:	00040513          	mv	a0,s0
    80002090:	00013403          	ld	s0,0(sp)
    80002094:	01010113          	addi	sp,sp,16
    80002098:	00008067          	ret
    8000209c:	0ff5f593          	zext.b	a1,a1
    800020a0:	00001797          	auipc	a5,0x1
    800020a4:	ed87b783          	ld	a5,-296(a5) # 80002f78 <pass+0x10>
    800020a8:	02f585b3          	mul	a1,a1,a5
    800020ac:	fce57ee3          	bgeu	a0,a4,80002088 <memset+0x2c>
    800020b0:	00050793          	mv	a5,a0
    800020b4:	00878793          	addi	a5,a5,8
    800020b8:	feb7bc23          	sd	a1,-8(a5)
    800020bc:	fee7ece3          	bltu	a5,a4,800020b4 <memset+0x58>
    800020c0:	00813083          	ld	ra,8(sp)
    800020c4:	00040513          	mv	a0,s0
    800020c8:	00013403          	ld	s0,0(sp)
    800020cc:	01010113          	addi	sp,sp,16
    800020d0:	00008067          	ret

00000000800020d4 <strlen>:
    800020d4:	00054783          	lbu	a5,0(a0)
    800020d8:	00078e63          	beqz	a5,800020f4 <strlen+0x20>
    800020dc:	00050793          	mv	a5,a0
    800020e0:	0017c703          	lbu	a4,1(a5)
    800020e4:	00178793          	addi	a5,a5,1
    800020e8:	fe071ce3          	bnez	a4,800020e0 <strlen+0xc>
    800020ec:	40a78533          	sub	a0,a5,a0
    800020f0:	00008067          	ret
    800020f4:	00000513          	li	a0,0
    800020f8:	00008067          	ret

00000000800020fc <strcmp>:
    800020fc:	00054783          	lbu	a5,0(a0)
    80002100:	00158593          	addi	a1,a1,1
    80002104:	00150513          	addi	a0,a0,1
    80002108:	fff5c703          	lbu	a4,-1(a1)
    8000210c:	00078a63          	beqz	a5,80002120 <strcmp+0x24>
    80002110:	fee786e3          	beq	a5,a4,800020fc <strcmp>
    80002114:	0007851b          	sext.w	a0,a5
    80002118:	40e5053b          	subw	a0,a0,a4
    8000211c:	00008067          	ret
    80002120:	00000513          	li	a0,0
    80002124:	ff5ff06f          	j	80002118 <strcmp+0x1c>

0000000080002128 <memcmp>:
    80002128:	00b567b3          	or	a5,a0,a1
    8000212c:	0077f793          	andi	a5,a5,7
    80002130:	02079e63          	bnez	a5,8000216c <memcmp+0x44>
    80002134:	ff867813          	andi	a6,a2,-8
    80002138:	01050833          	add	a6,a0,a6
    8000213c:	03057863          	bgeu	a0,a6,8000216c <memcmp+0x44>
    80002140:	00050793          	mv	a5,a0
    80002144:	0100006f          	j	80002154 <memcmp+0x2c>
    80002148:	00878793          	addi	a5,a5,8
    8000214c:	00858593          	addi	a1,a1,8
    80002150:	0107f863          	bgeu	a5,a6,80002160 <memcmp+0x38>
    80002154:	0007b683          	ld	a3,0(a5)
    80002158:	0005b703          	ld	a4,0(a1)
    8000215c:	fee686e3          	beq	a3,a4,80002148 <memcmp+0x20>
    80002160:	40a78533          	sub	a0,a5,a0
    80002164:	40a60633          	sub	a2,a2,a0
    80002168:	00078513          	mv	a0,a5
    8000216c:	00c58633          	add	a2,a1,a2
    80002170:	0140006f          	j	80002184 <memcmp+0x5c>
    80002174:	0005c703          	lbu	a4,0(a1)
    80002178:	fff54783          	lbu	a5,-1(a0)
    8000217c:	00158593          	addi	a1,a1,1
    80002180:	00e79a63          	bne	a5,a4,80002194 <memcmp+0x6c>
    80002184:	00150513          	addi	a0,a0,1
    80002188:	fec596e3          	bne	a1,a2,80002174 <memcmp+0x4c>
    8000218c:	00000513          	li	a0,0
    80002190:	00008067          	ret
    80002194:	40e7853b          	subw	a0,a5,a4
    80002198:	00008067          	ret

000000008000219c <strcpy>:
    8000219c:	00050793          	mv	a5,a0
    800021a0:	0005c703          	lbu	a4,0(a1)
    800021a4:	00178793          	addi	a5,a5,1
    800021a8:	00158593          	addi	a1,a1,1
    800021ac:	fee78fa3          	sb	a4,-1(a5)
    800021b0:	fe0718e3          	bnez	a4,800021a0 <strcpy+0x4>
    800021b4:	00008067          	ret

00000000800021b8 <atol>:
    800021b8:	00054703          	lbu	a4,0(a0)
    800021bc:	02000693          	li	a3,32
    800021c0:	00050793          	mv	a5,a0
    800021c4:	00d71863          	bne	a4,a3,800021d4 <atol+0x1c>
    800021c8:	0017c703          	lbu	a4,1(a5)
    800021cc:	00178793          	addi	a5,a5,1
    800021d0:	fed70ce3          	beq	a4,a3,800021c8 <atol+0x10>
    800021d4:	02d00693          	li	a3,45
    800021d8:	06d70063          	beq	a4,a3,80002238 <atol+0x80>
    800021dc:	02b00693          	li	a3,43
    800021e0:	04d70063          	beq	a4,a3,80002220 <atol+0x68>
    800021e4:	0007c683          	lbu	a3,0(a5)
    800021e8:	00000593          	li	a1,0
    800021ec:	04068263          	beqz	a3,80002230 <atol+0x78>
    800021f0:	00000513          	li	a0,0
    800021f4:	00178793          	addi	a5,a5,1
    800021f8:	00251713          	slli	a4,a0,0x2
    800021fc:	fd06861b          	addiw	a2,a3,-48
    80002200:	0007c683          	lbu	a3,0(a5)
    80002204:	00a70733          	add	a4,a4,a0
    80002208:	00171713          	slli	a4,a4,0x1
    8000220c:	00e60533          	add	a0,a2,a4
    80002210:	fe0692e3          	bnez	a3,800021f4 <atol+0x3c>
    80002214:	02058063          	beqz	a1,80002234 <atol+0x7c>
    80002218:	40a00533          	neg	a0,a0
    8000221c:	00008067          	ret
    80002220:	0017c683          	lbu	a3,1(a5)
    80002224:	00000593          	li	a1,0
    80002228:	00178793          	addi	a5,a5,1
    8000222c:	fc0692e3          	bnez	a3,800021f0 <atol+0x38>
    80002230:	00000513          	li	a0,0
    80002234:	00008067          	ret
    80002238:	0017c683          	lbu	a3,1(a5)
    8000223c:	00100593          	li	a1,1
    80002240:	00178793          	addi	a5,a5,1
    80002244:	fa0696e3          	bnez	a3,800021f0 <atol+0x38>
    80002248:	00000513          	li	a0,0
    8000224c:	fe9ff06f          	j	80002234 <atol+0x7c>

0000000080002250 <cputstring>:
    80002250:	00054783          	lbu	a5,0(a0)
    80002254:	04078063          	beqz	a5,80002294 <cputstring+0x44>
    80002258:	10100593          	li	a1,257
    8000225c:	fffff717          	auipc	a4,0xfffff
    80002260:	da470713          	addi	a4,a4,-604 # 80001000 <tohost>
    80002264:	03059593          	slli	a1,a1,0x30
    80002268:	00073603          	ld	a2,0(a4)
    8000226c:	00150513          	addi	a0,a0,1
    80002270:	00b7e6b3          	or	a3,a5,a1
    80002274:	00060a63          	beqz	a2,80002288 <cputstring+0x38>
    80002278:	fffff797          	auipc	a5,0xfffff
    8000227c:	dc07b423          	sd	zero,-568(a5) # 80001040 <fromhost>
    80002280:	00073783          	ld	a5,0(a4)
    80002284:	fe079ae3          	bnez	a5,80002278 <cputstring+0x28>
    80002288:	00d73023          	sd	a3,0(a4)
    8000228c:	00054783          	lbu	a5,0(a0)
    80002290:	fc079ce3          	bnez	a5,80002268 <cputstring+0x18>
    80002294:	00008067          	ret

0000000080002298 <terminate>:
    80002298:	fffff717          	auipc	a4,0xfffff
    8000229c:	d6870713          	addi	a4,a4,-664 # 80001000 <tohost>
    800022a0:	00073783          	ld	a5,0(a4)
    800022a4:	00078a63          	beqz	a5,800022b8 <terminate+0x20>
    800022a8:	fffff797          	auipc	a5,0xfffff
    800022ac:	d807bc23          	sd	zero,-616(a5) # 80001040 <fromhost>
    800022b0:	00073783          	ld	a5,0(a4)
    800022b4:	fe079ae3          	bnez	a5,800022a8 <terminate+0x10>
    800022b8:	00a73023          	sd	a0,0(a4)
    800022bc:	0000006f          	j	800022bc <terminate+0x24>

00000000800022c0 <wtf>:
    800022c0:	ff010113          	addi	sp,sp,-16
    800022c4:	34900513          	li	a0,841
    800022c8:	00113423          	sd	ra,8(sp)
    800022cc:	fcdff0ef          	jal	ra,80002298 <terminate>

00000000800022d0 <printhex>:
    800022d0:	fe010113          	addi	sp,sp,-32
    800022d4:	00810613          	addi	a2,sp,8
    800022d8:	01710713          	addi	a4,sp,23
    800022dc:	00900813          	li	a6,9
    800022e0:	0080006f          	j	800022e8 <printhex+0x18>
    800022e4:	00078713          	mv	a4,a5
    800022e8:	00f57693          	andi	a3,a0,15
    800022ec:	00068593          	mv	a1,a3
    800022f0:	03000793          	li	a5,48
    800022f4:	00d87463          	bgeu	a6,a3,800022fc <printhex+0x2c>
    800022f8:	05700793          	li	a5,87
    800022fc:	00b787bb          	addw	a5,a5,a1
    80002300:	00f70023          	sb	a5,0(a4)
    80002304:	00455513          	srli	a0,a0,0x4
    80002308:	fff70793          	addi	a5,a4,-1
    8000230c:	fce61ce3          	bne	a2,a4,800022e4 <printhex+0x14>
    80002310:	00814783          	lbu	a5,8(sp)
    80002314:	00010c23          	sb	zero,24(sp)
    80002318:	fffff717          	auipc	a4,0xfffff
    8000231c:	ce870713          	addi	a4,a4,-792 # 80001000 <tohost>
    80002320:	04078a63          	beqz	a5,80002374 <printhex+0xa4>
    80002324:	10100513          	li	a0,257
    80002328:	00060693          	mv	a3,a2
    8000232c:	fffff717          	auipc	a4,0xfffff
    80002330:	cd470713          	addi	a4,a4,-812 # 80001000 <tohost>
    80002334:	03051513          	slli	a0,a0,0x30
    80002338:	00073583          	ld	a1,0(a4)
    8000233c:	00168693          	addi	a3,a3,1
    80002340:	00a7e633          	or	a2,a5,a0
    80002344:	00058a63          	beqz	a1,80002358 <printhex+0x88>
    80002348:	fffff797          	auipc	a5,0xfffff
    8000234c:	ce07bc23          	sd	zero,-776(a5) # 80001040 <fromhost>
    80002350:	00073783          	ld	a5,0(a4)
    80002354:	fe079ae3          	bnez	a5,80002348 <printhex+0x78>
    80002358:	0006c783          	lbu	a5,0(a3)
    8000235c:	00c73023          	sd	a2,0(a4)
    80002360:	fc079ce3          	bnez	a5,80002338 <printhex+0x68>
    80002364:	00073783          	ld	a5,0(a4)
    80002368:	00078a63          	beqz	a5,8000237c <printhex+0xac>
    8000236c:	fffff797          	auipc	a5,0xfffff
    80002370:	cc07ba23          	sd	zero,-812(a5) # 80001040 <fromhost>
    80002374:	00073783          	ld	a5,0(a4)
    80002378:	fe079ae3          	bnez	a5,8000236c <printhex+0x9c>
    8000237c:	10100793          	li	a5,257
    80002380:	03079793          	slli	a5,a5,0x30
    80002384:	00a78793          	addi	a5,a5,10
    80002388:	00f73023          	sd	a5,0(a4)
    8000238c:	02010113          	addi	sp,sp,32
    80002390:	00008067          	ret

0000000080002394 <handle_fault>:
    80002394:	fb010113          	addi	sp,sp,-80
    80002398:	00100793          	li	a5,1
    8000239c:	10100893          	li	a7,257
    800023a0:	04813023          	sd	s0,64(sp)
    800023a4:	02913c23          	sd	s1,56(sp)
    800023a8:	00f12223          	sw	a5,4(sp)
    800023ac:	04113423          	sd	ra,72(sp)
    800023b0:	03213823          	sd	s2,48(sp)
    800023b4:	03313423          	sd	s3,40(sp)
    800023b8:	03413023          	sd	s4,32(sp)
    800023bc:	01513c23          	sd	s5,24(sp)
    800023c0:	00050413          	mv	s0,a0
    800023c4:	00058493          	mv	s1,a1
    800023c8:	00013423          	sd	zero,8(sp)
    800023cc:	06800793          	li	a5,104
    800023d0:	00001697          	auipc	a3,0x1
    800023d4:	bb068693          	addi	a3,a3,-1104 # 80002f80 <pass+0x18>
    800023d8:	fffff717          	auipc	a4,0xfffff
    800023dc:	c2870713          	addi	a4,a4,-984 # 80001000 <tohost>
    800023e0:	03089893          	slli	a7,a7,0x30
    800023e4:	00073803          	ld	a6,0(a4)
    800023e8:	00168693          	addi	a3,a3,1
    800023ec:	0117e633          	or	a2,a5,a7
    800023f0:	00080a63          	beqz	a6,80002404 <handle_fault+0x70>
    800023f4:	fffff797          	auipc	a5,0xfffff
    800023f8:	c407b623          	sd	zero,-948(a5) # 80001040 <fromhost>
    800023fc:	00073783          	ld	a5,0(a4)
    80002400:	fe079ae3          	bnez	a5,800023f4 <handle_fault+0x60>
    80002404:	0006c783          	lbu	a5,0(a3)
    80002408:	00c73023          	sd	a2,0(a4)
    8000240c:	fc079ce3          	bnez	a5,800023e4 <handle_fault+0x50>
    80002410:	00040513          	mv	a0,s0
    80002414:	ebdff0ef          	jal	ra,800022d0 <printhex>
    80002418:	fffff737          	lui	a4,0xfffff
    8000241c:	00e406b3          	add	a3,s0,a4
    80002420:	0003e7b7          	lui	a5,0x3e
    80002424:	1af6fa63          	bgeu	a3,a5,800025d8 <handle_fault+0x244>
    80002428:	00c45a13          	srli	s4,s0,0xc
    8000242c:	600a0913          	addi	s2,s4,1536
    80002430:	00004997          	auipc	s3,0x4
    80002434:	bd098993          	addi	s3,s3,-1072 # 80006000 <pt>
    80002438:	00391793          	slli	a5,s2,0x3
    8000243c:	00f987b3          	add	a5,s3,a5
    80002440:	0007b783          	ld	a5,0(a5) # 3e000 <_start-0x7ffc2000>
    80002444:	00e47433          	and	s0,s0,a4
    80002448:	10079663          	bnez	a5,80002554 <handle_fault+0x1c0>
    8000244c:	00008717          	auipc	a4,0x8
    80002450:	bbc70713          	addi	a4,a4,-1092 # 8000a008 <freelist_head>
    80002454:	00073483          	ld	s1,0(a4)
    80002458:	18048a63          	beqz	s1,800025ec <handle_fault+0x258>
    8000245c:	0084b783          	ld	a5,8(s1)
    80002460:	00008697          	auipc	a3,0x8
    80002464:	ba06b683          	ld	a3,-1120(a3) # 8000a000 <freelist_tail>
    80002468:	00f73023          	sd	a5,0(a4)
    8000246c:	12d78c63          	beq	a5,a3,800025a4 <handle_fault+0x210>
    80002470:	00410613          	addi	a2,sp,4
    80002474:	00810593          	addi	a1,sp,8
    80002478:	00040513          	mv	a0,s0
    8000247c:	0004ba83          	ld	s5,0(s1)
    80002480:	65c000ef          	jal	ra,80002adc <pf_filter>
    80002484:	10051063          	bnez	a0,80002584 <handle_fault+0x1f0>
    80002488:	00cad693          	srli	a3,s5,0xc
    8000248c:	00a69693          	slli	a3,a3,0xa
    80002490:	01f6e693          	ori	a3,a3,31
    80002494:	00391793          	slli	a5,s2,0x3
    80002498:	00f987b3          	add	a5,s3,a5
    8000249c:	0c06e713          	ori	a4,a3,192
    800024a0:	00e7b023          	sd	a4,0(a5)
    800024a4:	12040073          	sfence.vma	s0
    800024a8:	00003797          	auipc	a5,0x3
    800024ac:	b5878793          	addi	a5,a5,-1192 # 80005000 <user_mapping>
    800024b0:	004a1a13          	slli	s4,s4,0x4
    800024b4:	014787b3          	add	a5,a5,s4
    800024b8:	0007b703          	ld	a4,0(a5)
    800024bc:	0e071a63          	bnez	a4,800025b0 <handle_fault+0x21c>
    800024c0:	0004b703          	ld	a4,0(s1)
    800024c4:	00040337          	lui	t1,0x40
    800024c8:	00e7b023          	sd	a4,0(a5)
    800024cc:	0084b703          	ld	a4,8(s1)
    800024d0:	00e7b423          	sd	a4,8(a5)
    800024d4:	10032373          	csrrs	t1,sstatus,t1
    800024d8:	ffe007b7          	lui	a5,0xffe00
    800024dc:	00f407b3          	add	a5,s0,a5
    800024e0:	000018b7          	lui	a7,0x1
    800024e4:	00040713          	mv	a4,s0
    800024e8:	011788b3          	add	a7,a5,a7
    800024ec:	0007b803          	ld	a6,0(a5) # ffffffffffe00000 <freelist_head+0xffffffff7fdf5ff8>
    800024f0:	0087b503          	ld	a0,8(a5)
    800024f4:	0107b583          	ld	a1,16(a5)
    800024f8:	0187b603          	ld	a2,24(a5)
    800024fc:	01073023          	sd	a6,0(a4)
    80002500:	00a73423          	sd	a0,8(a4)
    80002504:	00b73823          	sd	a1,16(a4)
    80002508:	00c73c23          	sd	a2,24(a4)
    8000250c:	02078793          	addi	a5,a5,32
    80002510:	02070713          	addi	a4,a4,32
    80002514:	fd179ce3          	bne	a5,a7,800024ec <handle_fault+0x158>
    80002518:	10031073          	csrw	sstatus,t1
    8000251c:	00391913          	slli	s2,s2,0x3
    80002520:	012987b3          	add	a5,s3,s2
    80002524:	00d7b023          	sd	a3,0(a5)
    80002528:	12040073          	sfence.vma	s0
    8000252c:	0000100f          	fence.i
    80002530:	04813083          	ld	ra,72(sp)
    80002534:	04013403          	ld	s0,64(sp)
    80002538:	03813483          	ld	s1,56(sp)
    8000253c:	03013903          	ld	s2,48(sp)
    80002540:	02813983          	ld	s3,40(sp)
    80002544:	02013a03          	ld	s4,32(sp)
    80002548:	01813a83          	ld	s5,24(sp)
    8000254c:	05010113          	addi	sp,sp,80
    80002550:	00008067          	ret
    80002554:	0407f713          	andi	a4,a5,64
    80002558:	04070263          	beqz	a4,8000259c <handle_fault+0x208>
    8000255c:	0807f713          	andi	a4,a5,128
    80002560:	06071263          	bnez	a4,800025c4 <handle_fault+0x230>
    80002564:	00f00713          	li	a4,15
    80002568:	0807e793          	ori	a5,a5,128
    8000256c:	04e49c63          	bne	s1,a4,800025c4 <handle_fault+0x230>
    80002570:	00391713          	slli	a4,s2,0x3
    80002574:	00e98733          	add	a4,s3,a4
    80002578:	00f73023          	sd	a5,0(a4)
    8000257c:	12040073          	sfence.vma	s0
    80002580:	fb1ff06f          	j	80002530 <handle_fault+0x19c>
    80002584:	0004b683          	ld	a3,0(s1)
    80002588:	00813783          	ld	a5,8(sp)
    8000258c:	00c6d693          	srli	a3,a3,0xc
    80002590:	00a69693          	slli	a3,a3,0xa
    80002594:	00f6e6b3          	or	a3,a3,a5
    80002598:	efdff06f          	j	80002494 <handle_fault+0x100>
    8000259c:	0407e793          	ori	a5,a5,64
    800025a0:	fd1ff06f          	j	80002570 <handle_fault+0x1dc>
    800025a4:	00008797          	auipc	a5,0x8
    800025a8:	a407be23          	sd	zero,-1444(a5) # 8000a000 <freelist_tail>
    800025ac:	ec5ff06f          	j	80002470 <handle_fault+0xdc>
    800025b0:	00001517          	auipc	a0,0x1
    800025b4:	a8850513          	addi	a0,a0,-1400 # 80003038 <pass+0xd0>
    800025b8:	c99ff0ef          	jal	ra,80002250 <cputstring>
    800025bc:	00300513          	li	a0,3
    800025c0:	cd9ff0ef          	jal	ra,80002298 <terminate>
    800025c4:	00001517          	auipc	a0,0x1
    800025c8:	a1450513          	addi	a0,a0,-1516 # 80002fd8 <pass+0x70>
    800025cc:	c85ff0ef          	jal	ra,80002250 <cputstring>
    800025d0:	00300513          	li	a0,3
    800025d4:	cc5ff0ef          	jal	ra,80002298 <terminate>
    800025d8:	00001517          	auipc	a0,0x1
    800025dc:	9b850513          	addi	a0,a0,-1608 # 80002f90 <pass+0x28>
    800025e0:	c71ff0ef          	jal	ra,80002250 <cputstring>
    800025e4:	00300513          	li	a0,3
    800025e8:	cb1ff0ef          	jal	ra,80002298 <terminate>
    800025ec:	00001517          	auipc	a0,0x1
    800025f0:	a3450513          	addi	a0,a0,-1484 # 80003020 <pass+0xb8>
    800025f4:	c5dff0ef          	jal	ra,80002250 <cputstring>
    800025f8:	00300513          	li	a0,3
    800025fc:	c9dff0ef          	jal	ra,80002298 <terminate>

0000000080002600 <handle_trap>:
    80002600:	f8010113          	addi	sp,sp,-128
    80002604:	06813823          	sd	s0,112(sp)
    80002608:	06113c23          	sd	ra,120(sp)
    8000260c:	06913423          	sd	s1,104(sp)
    80002610:	07213023          	sd	s2,96(sp)
    80002614:	05313c23          	sd	s3,88(sp)
    80002618:	05413823          	sd	s4,80(sp)
    8000261c:	05513423          	sd	s5,72(sp)
    80002620:	05613023          	sd	s6,64(sp)
    80002624:	03713c23          	sd	s7,56(sp)
    80002628:	03813823          	sd	s8,48(sp)
    8000262c:	03913423          	sd	s9,40(sp)
    80002630:	03a13023          	sd	s10,32(sp)
    80002634:	01b13c23          	sd	s11,24(sp)
    80002638:	00050413          	mv	s0,a0
    8000263c:	498000ef          	jal	ra,80002ad4 <trap_filter>
    80002640:	0e051263          	bnez	a0,80002724 <handle_trap+0x124>
    80002644:	11843583          	ld	a1,280(s0)
    80002648:	00800793          	li	a5,8
    8000264c:	10f58063          	beq	a1,a5,8000274c <handle_trap+0x14c>
    80002650:	00200793          	li	a5,2
    80002654:	06f58063          	beq	a1,a5,800026b4 <handle_trap+0xb4>
    80002658:	ff458793          	addi	a5,a1,-12
    8000265c:	00100713          	li	a4,1
    80002660:	00f77663          	bgeu	a4,a5,8000266c <handle_trap+0x6c>
    80002664:	00f00793          	li	a5,15
    80002668:	1ef59c63          	bne	a1,a5,80002860 <handle_trap+0x260>
    8000266c:	11043503          	ld	a0,272(s0)
    80002670:	d25ff0ef          	jal	ra,80002394 <handle_fault>
    80002674:	00040513          	mv	a0,s0
    80002678:	07013403          	ld	s0,112(sp)
    8000267c:	07813083          	ld	ra,120(sp)
    80002680:	06813483          	ld	s1,104(sp)
    80002684:	06013903          	ld	s2,96(sp)
    80002688:	05813983          	ld	s3,88(sp)
    8000268c:	05013a03          	ld	s4,80(sp)
    80002690:	04813a83          	ld	s5,72(sp)
    80002694:	04013b03          	ld	s6,64(sp)
    80002698:	03813b83          	ld	s7,56(sp)
    8000269c:	03013c03          	ld	s8,48(sp)
    800026a0:	02813c83          	ld	s9,40(sp)
    800026a4:	02013d03          	ld	s10,32(sp)
    800026a8:	01813d83          	ld	s11,24(sp)
    800026ac:	08010113          	addi	sp,sp,128
    800026b0:	a0dfd06f          	j	800000bc <pop_tf>
    800026b4:	10843703          	ld	a4,264(s0)
    800026b8:	00377793          	andi	a5,a4,3
    800026bc:	06079e63          	bnez	a5,80002738 <handle_trap+0x138>
    800026c0:	008007ef          	jal	a5,800026c8 <handle_trap+0xc8>
    800026c4:	00301073          	fscsr	zero
    800026c8:	00072703          	lw	a4,0(a4)
    800026cc:	0007a783          	lw	a5,0(a5)
    800026d0:	06f70063          	beq	a4,a5,80002730 <handle_trap+0x130>
    800026d4:	10100513          	li	a0,257
    800026d8:	04100793          	li	a5,65
    800026dc:	00001697          	auipc	a3,0x1
    800026e0:	99c68693          	addi	a3,a3,-1636 # 80003078 <pass+0x110>
    800026e4:	fffff717          	auipc	a4,0xfffff
    800026e8:	91c70713          	addi	a4,a4,-1764 # 80001000 <tohost>
    800026ec:	03051513          	slli	a0,a0,0x30
    800026f0:	00073583          	ld	a1,0(a4)
    800026f4:	00168693          	addi	a3,a3,1
    800026f8:	00a7e633          	or	a2,a5,a0
    800026fc:	00058a63          	beqz	a1,80002710 <handle_trap+0x110>
    80002700:	fffff797          	auipc	a5,0xfffff
    80002704:	9407b023          	sd	zero,-1728(a5) # 80001040 <fromhost>
    80002708:	00073783          	ld	a5,0(a4)
    8000270c:	fe079ae3          	bnez	a5,80002700 <handle_trap+0x100>
    80002710:	0006c783          	lbu	a5,0(a3)
    80002714:	00c73023          	sd	a2,0(a4)
    80002718:	fc079ce3          	bnez	a5,800026f0 <handle_trap+0xf0>
    8000271c:	00300513          	li	a0,3
    80002720:	b79ff0ef          	jal	ra,80002298 <terminate>
    80002724:	00040513          	mv	a0,s0
    80002728:	995fd0ef          	jal	ra,800000bc <pop_tf>
    8000272c:	f19ff06f          	j	80002644 <handle_trap+0x44>
    80002730:	00100513          	li	a0,1
    80002734:	b65ff0ef          	jal	ra,80002298 <terminate>
    80002738:	00001517          	auipc	a0,0x1
    8000273c:	9e050513          	addi	a0,a0,-1568 # 80003118 <pass+0x1b0>
    80002740:	b11ff0ef          	jal	ra,80002250 <cputstring>
    80002744:	00300513          	li	a0,3
    80002748:	b51ff0ef          	jal	ra,80002298 <terminate>
    8000274c:	05042783          	lw	a5,80(s0)
    80002750:	000014b7          	lui	s1,0x1
    80002754:	00003a97          	auipc	s5,0x3
    80002758:	8aca8a93          	addi	s5,s5,-1876 # 80005000 <user_mapping>
    8000275c:	00f13423          	sd	a5,8(sp)
    80002760:	00004d17          	auipc	s10,0x4
    80002764:	8a0d0d13          	addi	s10,s10,-1888 # 80006000 <pt>
    80002768:	00040cb7          	lui	s9,0x40
    8000276c:	ffe00c37          	lui	s8,0xffe00
    80002770:	00008a17          	auipc	s4,0x8
    80002774:	890a0a13          	addi	s4,s4,-1904 # 8000a000 <freelist_tail>
    80002778:	00008b97          	auipc	s7,0x8
    8000277c:	890b8b93          	addi	s7,s7,-1904 # 8000a008 <freelist_head>
    80002780:	0003fb37          	lui	s6,0x3f
    80002784:	00c4d793          	srli	a5,s1,0xc
    80002788:	00479913          	slli	s2,a5,0x4
    8000278c:	012a8733          	add	a4,s5,s2
    80002790:	00073703          	ld	a4,0(a4)
    80002794:	08070c63          	beqz	a4,8000282c <handle_trap+0x22c>
    80002798:	60078793          	addi	a5,a5,1536
    8000279c:	00379793          	slli	a5,a5,0x3
    800027a0:	00fd07b3          	add	a5,s10,a5
    800027a4:	0007b983          	ld	s3,0(a5)
    800027a8:	0409f793          	andi	a5,s3,64
    800027ac:	0a078063          	beqz	a5,8000284c <handle_trap+0x24c>
    800027b0:	100cadf3          	csrrs	s11,sstatus,s9
    800027b4:	01848433          	add	s0,s1,s8
    800027b8:	00001637          	lui	a2,0x1
    800027bc:	00040593          	mv	a1,s0
    800027c0:	00048513          	mv	a0,s1
    800027c4:	965ff0ef          	jal	ra,80002128 <memcmp>
    800027c8:	04050463          	beqz	a0,80002810 <handle_trap+0x210>
    800027cc:	0809f993          	andi	s3,s3,128
    800027d0:	0a098063          	beqz	s3,80002870 <handle_trap+0x270>
    800027d4:	000016b7          	lui	a3,0x1
    800027d8:	00048713          	mv	a4,s1
    800027dc:	00040793          	mv	a5,s0
    800027e0:	00d486b3          	add	a3,s1,a3
    800027e4:	00073803          	ld	a6,0(a4)
    800027e8:	00873503          	ld	a0,8(a4)
    800027ec:	01073583          	ld	a1,16(a4)
    800027f0:	01873603          	ld	a2,24(a4)
    800027f4:	0107b023          	sd	a6,0(a5)
    800027f8:	00a7b423          	sd	a0,8(a5)
    800027fc:	00b7b823          	sd	a1,16(a5)
    80002800:	00c7bc23          	sd	a2,24(a5)
    80002804:	02070713          	addi	a4,a4,32
    80002808:	02078793          	addi	a5,a5,32
    8000280c:	fcd71ce3          	bne	a4,a3,800027e4 <handle_trap+0x1e4>
    80002810:	012a87b3          	add	a5,s5,s2
    80002814:	100d9073          	csrw	sstatus,s11
    80002818:	000a3703          	ld	a4,0(s4)
    8000281c:	0007b023          	sd	zero,0(a5)
    80002820:	02070063          	beqz	a4,80002840 <handle_trap+0x240>
    80002824:	00f73423          	sd	a5,8(a4)
    80002828:	00fa3023          	sd	a5,0(s4)
    8000282c:	000017b7          	lui	a5,0x1
    80002830:	00f484b3          	add	s1,s1,a5
    80002834:	f56498e3          	bne	s1,s6,80002784 <handle_trap+0x184>
    80002838:	00813503          	ld	a0,8(sp)
    8000283c:	a5dff0ef          	jal	ra,80002298 <terminate>
    80002840:	00fa3023          	sd	a5,0(s4)
    80002844:	00fbb023          	sd	a5,0(s7)
    80002848:	fe5ff06f          	j	8000282c <handle_trap+0x22c>
    8000284c:	00001517          	auipc	a0,0x1
    80002850:	85c50513          	addi	a0,a0,-1956 # 800030a8 <pass+0x140>
    80002854:	9fdff0ef          	jal	ra,80002250 <cputstring>
    80002858:	00300513          	li	a0,3
    8000285c:	a3dff0ef          	jal	ra,80002298 <terminate>
    80002860:	00001517          	auipc	a0,0x1
    80002864:	8e050513          	addi	a0,a0,-1824 # 80003140 <pass+0x1d8>
    80002868:	9e9ff0ef          	jal	ra,80002250 <cputstring>
    8000286c:	eb1ff06f          	j	8000271c <handle_trap+0x11c>
    80002870:	00001517          	auipc	a0,0x1
    80002874:	87050513          	addi	a0,a0,-1936 # 800030e0 <pass+0x178>
    80002878:	9d9ff0ef          	jal	ra,80002250 <cputstring>
    8000287c:	00300513          	li	a0,3
    80002880:	a19ff0ef          	jal	ra,80002298 <terminate>

0000000080002884 <vm_boot>:
    80002884:	f14027f3          	csrr	a5,mhartid
    80002888:	1e079263          	bnez	a5,80002a6c <vm_boot+0x1e8>
    8000288c:	00005797          	auipc	a5,0x5
    80002890:	77478793          	addi	a5,a5,1908 # 80008000 <pt+0x2000>
    80002894:	ed010113          	addi	sp,sp,-304
    80002898:	00c7d793          	srli	a5,a5,0xc
    8000289c:	12813023          	sd	s0,288(sp)
    800028a0:	00006817          	auipc	a6,0x6
    800028a4:	76080813          	addi	a6,a6,1888 # 80009000 <pt+0x3000>
    800028a8:	00050413          	mv	s0,a0
    800028ac:	00a79793          	slli	a5,a5,0xa
    800028b0:	00004517          	auipc	a0,0x4
    800028b4:	75050513          	addi	a0,a0,1872 # 80007000 <pt+0x1000>
    800028b8:	12113423          	sd	ra,296(sp)
    800028bc:	00c55693          	srli	a3,a0,0xc
    800028c0:	00c85713          	srli	a4,a6,0xc
    800028c4:	0017e793          	ori	a5,a5,1
    800028c8:	00003897          	auipc	a7,0x3
    800028cc:	73888893          	addi	a7,a7,1848 # 80006000 <pt>
    800028d0:	fff00613          	li	a2,-1
    800028d4:	fef53c23          	sd	a5,-8(a0)
    800028d8:	00a69693          	slli	a3,a3,0xa
    800028dc:	00a71713          	slli	a4,a4,0xa
    800028e0:	200007b7          	lui	a5,0x20000
    800028e4:	0016e693          	ori	a3,a3,1
    800028e8:	00176713          	ori	a4,a4,1
    800028ec:	00c8d593          	srli	a1,a7,0xc
    800028f0:	03f61313          	slli	t1,a2,0x3f
    800028f4:	0cf78793          	addi	a5,a5,207 # 200000cf <_start-0x5fffff31>
    800028f8:	fef83c23          	sd	a5,-8(a6)
    800028fc:	00d8b023          	sd	a3,0(a7)
    80002900:	00e53023          	sd	a4,0(a0)
    80002904:	0065e7b3          	or	a5,a1,t1
    80002908:	18079073          	csrw	satp,a5
    8000290c:	18002773          	csrr	a4,satp
    80002910:	1ae79663          	bne	a5,a4,80002abc <vm_boot+0x238>
    80002914:	00b65613          	srli	a2,a2,0xb
    80002918:	01f00793          	li	a5,31
    8000291c:	00000297          	auipc	t0,0x0
    80002920:	01428293          	addi	t0,t0,20 # 80002930 <vm_boot+0xac>
    80002924:	305292f3          	csrrw	t0,mtvec,t0
    80002928:	3b061073          	csrw	pmpaddr0,a2
    8000292c:	3a079073          	csrw	pmpcfg0,a5
    80002930:	30529073          	csrw	mtvec,t0
    80002934:	bff00813          	li	a6,-1025
    80002938:	01581813          	slli	a6,a6,0x15
    8000293c:	ffffe797          	auipc	a5,0xffffe
    80002940:	80878793          	addi	a5,a5,-2040 # 80000144 <trap_entry>
    80002944:	010787b3          	add	a5,a5,a6
    80002948:	10579073          	csrw	stvec,a5
    8000294c:	340027f3          	csrr	a5,mscratch
    80002950:	010787b3          	add	a5,a5,a6
    80002954:	14079073          	csrw	sscratch,a5
    80002958:	0000b7b7          	lui	a5,0xb
    8000295c:	1007879b          	addiw	a5,a5,256 # b100 <_start-0x7fff4f00>
    80002960:	30279073          	csrw	medeleg,a5
    80002964:	0001e7b7          	lui	a5,0x1e
    80002968:	6007879b          	addiw	a5,a5,1536 # 1e600 <_start-0x7ffe1a00>
    8000296c:	30079073          	csrw	mstatus,a5
    80002970:	30405073          	csrwi	mie,0
    80002974:	00003717          	auipc	a4,0x3
    80002978:	a7c70713          	addi	a4,a4,-1412 # 800053f0 <freelist_nodes>
    8000297c:	3e080793          	addi	a5,a6,992
    80002980:	010706b3          	add	a3,a4,a6
    80002984:	00f707b3          	add	a5,a4,a5
    80002988:	000808b7          	lui	a7,0x80
    8000298c:	00007617          	auipc	a2,0x7
    80002990:	66d63e23          	sd	a3,1660(a2) # 8000a008 <freelist_head>
    80002994:	00003317          	auipc	t1,0x3
    80002998:	e4c30313          	addi	t1,t1,-436 # 800057e0 <freelist_nodes+0x3f0>
    8000299c:	00007697          	auipc	a3,0x7
    800029a0:	66f6b223          	sd	a5,1636(a3) # 8000a000 <freelist_tail>
    800029a4:	03f88893          	addi	a7,a7,63 # 8003f <_start-0x7ff7ffc1>
    800029a8:	01300793          	li	a5,19
    800029ac:	01080813          	addi	a6,a6,16
    800029b0:	0017d613          	srli	a2,a5,0x1
    800029b4:	011786b3          	add	a3,a5,a7
    800029b8:	00f647b3          	xor	a5,a2,a5
    800029bc:	010705b3          	add	a1,a4,a6
    800029c0:	00c69693          	slli	a3,a3,0xc
    800029c4:	00579793          	slli	a5,a5,0x5
    800029c8:	00d73023          	sd	a3,0(a4)
    800029cc:	00b73423          	sd	a1,8(a4)
    800029d0:	0207f793          	andi	a5,a5,32
    800029d4:	01070713          	addi	a4,a4,16
    800029d8:	00f667b3          	or	a5,a2,a5
    800029dc:	fce31ae3          	bne	t1,a4,800029b0 <vm_boot+0x12c>
    800029e0:	12000613          	li	a2,288
    800029e4:	00000593          	li	a1,0
    800029e8:	00010513          	mv	a0,sp
    800029ec:	00003797          	auipc	a5,0x3
    800029f0:	de07b623          	sd	zero,-532(a5) # 800057d8 <freelist_nodes+0x3e8>
    800029f4:	e68ff0ef          	jal	ra,8000205c <memset>
    800029f8:	800007b7          	lui	a5,0x80000
    800029fc:	00f40433          	add	s0,s0,a5
    80002a00:	10100513          	li	a0,257
    80002a04:	10813423          	sd	s0,264(sp)
    80002a08:	07600793          	li	a5,118
    80002a0c:	00000697          	auipc	a3,0x0
    80002a10:	76468693          	addi	a3,a3,1892 # 80003170 <pass+0x208>
    80002a14:	ffffe717          	auipc	a4,0xffffe
    80002a18:	5ec70713          	addi	a4,a4,1516 # 80001000 <tohost>
    80002a1c:	03051513          	slli	a0,a0,0x30
    80002a20:	00073583          	ld	a1,0(a4)
    80002a24:	00168693          	addi	a3,a3,1
    80002a28:	00a7e633          	or	a2,a5,a0
    80002a2c:	00058a63          	beqz	a1,80002a40 <vm_boot+0x1bc>
    80002a30:	ffffe797          	auipc	a5,0xffffe
    80002a34:	6007b823          	sd	zero,1552(a5) # 80001040 <fromhost>
    80002a38:	00073783          	ld	a5,0(a4)
    80002a3c:	fe079ae3          	bnez	a5,80002a30 <vm_boot+0x1ac>
    80002a40:	0006c783          	lbu	a5,0(a3)
    80002a44:	00c73023          	sd	a2,0(a4)
    80002a48:	fc079ce3          	bnez	a5,80002a20 <vm_boot+0x19c>
    80002a4c:	00010513          	mv	a0,sp
    80002a50:	881ff0ef          	jal	ra,800022d0 <printhex>
    80002a54:	00010513          	mv	a0,sp
    80002a58:	e64fd0ef          	jal	ra,800000bc <pop_tf>
    80002a5c:	12813083          	ld	ra,296(sp)
    80002a60:	12013403          	ld	s0,288(sp)
    80002a64:	13010113          	addi	sp,sp,304
    80002a68:	00008067          	ret
    80002a6c:	00100713          	li	a4,1
    80002a70:	061a97b7          	lui	a5,0x61a9
    80002a74:	00080637          	lui	a2,0x80
    80002a78:	7fc78793          	addi	a5,a5,2044 # 61a97fc <_start-0x79e56804>
    80002a7c:	ffc60613          	addi	a2,a2,-4 # 7fffc <_start-0x7ff80004>
    80002a80:	01f71513          	slli	a0,a4,0x1f
    80002a84:	03e71693          	slli	a3,a4,0x3e
    80002a88:	01c0006f          	j	80002aa4 <vm_boot+0x220>
    80002a8c:	0007202f          	amoadd.w	zero,zero,(a4)
    80002a90:	0017d713          	srli	a4,a5,0x1
    80002a94:	00e7c7b3          	xor	a5,a5,a4
    80002a98:	03e79793          	slli	a5,a5,0x3e
    80002a9c:	00d7f7b3          	and	a5,a5,a3
    80002aa0:	00e7e7b3          	or	a5,a5,a4
    80002aa4:	00c7f733          	and	a4,a5,a2
    80002aa8:	0017f593          	andi	a1,a5,1
    80002aac:	00a70733          	add	a4,a4,a0
    80002ab0:	fc059ee3          	bnez	a1,80002a8c <vm_boot+0x208>
    80002ab4:	00072003          	lw	zero,0(a4)
    80002ab8:	fd9ff06f          	j	80002a90 <vm_boot+0x20c>
    80002abc:	00000517          	auipc	a0,0x0
    80002ac0:	6c450513          	addi	a0,a0,1732 # 80003180 <pass+0x218>
    80002ac4:	f8cff0ef          	jal	ra,80002250 <cputstring>
    80002ac8:	00300513          	li	a0,3
    80002acc:	fccff0ef          	jal	ra,80002298 <terminate>

0000000080002ad0 <extra_boot>:
    80002ad0:	00008067          	ret

0000000080002ad4 <trap_filter>:
    80002ad4:	00000513          	li	a0,0
    80002ad8:	00008067          	ret

0000000080002adc <pf_filter>:
    80002adc:	00000513          	li	a0,0
    80002ae0:	00008067          	ret

0000000080002ae4 <userstart>:
    80002ae4:	00200193          	li	gp,2
    80002ae8:	00001097          	auipc	ra,0x1
    80002aec:	51808093          	addi	ra,ra,1304 # 80004000 <begin_signature>
    80002af0:	faa00113          	li	sp,-86
    80002af4:	00000797          	auipc	a5,0x0
    80002af8:	01478793          	addi	a5,a5,20 # 80002b08 <userstart+0x24>
    80002afc:	00208023          	sb	sp,0(ra)
    80002b00:	00008703          	lb	a4,0(ra)
    80002b04:	0080006f          	j	80002b0c <userstart+0x28>
    80002b08:	00010713          	mv	a4,sp
    80002b0c:	faa00393          	li	t2,-86
    80002b10:	44771463          	bne	a4,t2,80002f58 <fail>

0000000080002b14 <test_3>:
    80002b14:	00300193          	li	gp,3
    80002b18:	00001097          	auipc	ra,0x1
    80002b1c:	4e808093          	addi	ra,ra,1256 # 80004000 <begin_signature>
    80002b20:	00000113          	li	sp,0
    80002b24:	00000797          	auipc	a5,0x0
    80002b28:	01478793          	addi	a5,a5,20 # 80002b38 <test_3+0x24>
    80002b2c:	002080a3          	sb	sp,1(ra)
    80002b30:	00108703          	lb	a4,1(ra)
    80002b34:	0080006f          	j	80002b3c <test_3+0x28>
    80002b38:	00010713          	mv	a4,sp
    80002b3c:	00000393          	li	t2,0
    80002b40:	40771c63          	bne	a4,t2,80002f58 <fail>

0000000080002b44 <test_4>:
    80002b44:	00400193          	li	gp,4
    80002b48:	00001097          	auipc	ra,0x1
    80002b4c:	4b808093          	addi	ra,ra,1208 # 80004000 <begin_signature>
    80002b50:	fffff137          	lui	sp,0xfffff
    80002b54:	fa01011b          	addiw	sp,sp,-96 # ffffffffffffefa0 <freelist_head+0xffffffff7fff4f98>
    80002b58:	00000797          	auipc	a5,0x0
    80002b5c:	01478793          	addi	a5,a5,20 # 80002b6c <test_4+0x28>
    80002b60:	00208123          	sb	sp,2(ra)
    80002b64:	00209703          	lh	a4,2(ra)
    80002b68:	0080006f          	j	80002b70 <test_4+0x2c>
    80002b6c:	00010713          	mv	a4,sp
    80002b70:	fffff3b7          	lui	t2,0xfffff
    80002b74:	fa03839b          	addiw	t2,t2,-96 # ffffffffffffefa0 <freelist_head+0xffffffff7fff4f98>
    80002b78:	3e771063          	bne	a4,t2,80002f58 <fail>

0000000080002b7c <test_5>:
    80002b7c:	00500193          	li	gp,5
    80002b80:	00001097          	auipc	ra,0x1
    80002b84:	48008093          	addi	ra,ra,1152 # 80004000 <begin_signature>
    80002b88:	00a00113          	li	sp,10
    80002b8c:	00000797          	auipc	a5,0x0
    80002b90:	01478793          	addi	a5,a5,20 # 80002ba0 <test_5+0x24>
    80002b94:	002081a3          	sb	sp,3(ra)
    80002b98:	00308703          	lb	a4,3(ra)
    80002b9c:	0080006f          	j	80002ba4 <test_5+0x28>
    80002ba0:	00010713          	mv	a4,sp
    80002ba4:	00a00393          	li	t2,10
    80002ba8:	3a771863          	bne	a4,t2,80002f58 <fail>

0000000080002bac <test_6>:
    80002bac:	00600193          	li	gp,6
    80002bb0:	00001097          	auipc	ra,0x1
    80002bb4:	45708093          	addi	ra,ra,1111 # 80004007 <tdat8>
    80002bb8:	faa00113          	li	sp,-86
    80002bbc:	00000797          	auipc	a5,0x0
    80002bc0:	01478793          	addi	a5,a5,20 # 80002bd0 <test_6+0x24>
    80002bc4:	fe208ea3          	sb	sp,-3(ra)
    80002bc8:	ffd08703          	lb	a4,-3(ra)
    80002bcc:	0080006f          	j	80002bd4 <test_6+0x28>
    80002bd0:	00010713          	mv	a4,sp
    80002bd4:	faa00393          	li	t2,-86
    80002bd8:	38771063          	bne	a4,t2,80002f58 <fail>

0000000080002bdc <test_7>:
    80002bdc:	00700193          	li	gp,7
    80002be0:	00001097          	auipc	ra,0x1
    80002be4:	42708093          	addi	ra,ra,1063 # 80004007 <tdat8>
    80002be8:	00000113          	li	sp,0
    80002bec:	00000797          	auipc	a5,0x0
    80002bf0:	01478793          	addi	a5,a5,20 # 80002c00 <test_7+0x24>
    80002bf4:	fe208f23          	sb	sp,-2(ra)
    80002bf8:	ffe08703          	lb	a4,-2(ra)
    80002bfc:	0080006f          	j	80002c04 <test_7+0x28>
    80002c00:	00010713          	mv	a4,sp
    80002c04:	00000393          	li	t2,0
    80002c08:	34771863          	bne	a4,t2,80002f58 <fail>

0000000080002c0c <test_8>:
    80002c0c:	00800193          	li	gp,8
    80002c10:	00001097          	auipc	ra,0x1
    80002c14:	3f708093          	addi	ra,ra,1015 # 80004007 <tdat8>
    80002c18:	fa000113          	li	sp,-96
    80002c1c:	00000797          	auipc	a5,0x0
    80002c20:	01478793          	addi	a5,a5,20 # 80002c30 <test_8+0x24>
    80002c24:	fe208fa3          	sb	sp,-1(ra)
    80002c28:	fff08703          	lb	a4,-1(ra)
    80002c2c:	0080006f          	j	80002c34 <test_8+0x28>
    80002c30:	00010713          	mv	a4,sp
    80002c34:	fa000393          	li	t2,-96
    80002c38:	32771063          	bne	a4,t2,80002f58 <fail>

0000000080002c3c <test_9>:
    80002c3c:	00900193          	li	gp,9
    80002c40:	00001097          	auipc	ra,0x1
    80002c44:	3c708093          	addi	ra,ra,967 # 80004007 <tdat8>
    80002c48:	00a00113          	li	sp,10
    80002c4c:	00000797          	auipc	a5,0x0
    80002c50:	01478793          	addi	a5,a5,20 # 80002c60 <test_9+0x24>
    80002c54:	00208023          	sb	sp,0(ra)
    80002c58:	00008703          	lb	a4,0(ra)
    80002c5c:	0080006f          	j	80002c64 <test_9+0x28>
    80002c60:	00010713          	mv	a4,sp
    80002c64:	00a00393          	li	t2,10
    80002c68:	2e771863          	bne	a4,t2,80002f58 <fail>

0000000080002c6c <test_10>:
    80002c6c:	00a00193          	li	gp,10
    80002c70:	00001097          	auipc	ra,0x1
    80002c74:	39808093          	addi	ra,ra,920 # 80004008 <tdat9>
    80002c78:	12345137          	lui	sp,0x12345
    80002c7c:	6781011b          	addiw	sp,sp,1656 # 12345678 <_start-0x6dcba988>
    80002c80:	fe008213          	addi	tp,ra,-32
    80002c84:	02220023          	sb	sp,32(tp) # 20 <_start-0x7fffffe0>
    80002c88:	00008283          	lb	t0,0(ra)
    80002c8c:	07800393          	li	t2,120
    80002c90:	2c729463          	bne	t0,t2,80002f58 <fail>

0000000080002c94 <test_11>:
    80002c94:	00b00193          	li	gp,11
    80002c98:	00001097          	auipc	ra,0x1
    80002c9c:	37008093          	addi	ra,ra,880 # 80004008 <tdat9>
    80002ca0:	00003137          	lui	sp,0x3
    80002ca4:	0981011b          	addiw	sp,sp,152 # 3098 <_start-0x7fffcf68>
    80002ca8:	ffa08093          	addi	ra,ra,-6
    80002cac:	002083a3          	sb	sp,7(ra)
    80002cb0:	00001217          	auipc	tp,0x1
    80002cb4:	35920213          	addi	tp,tp,857 # 80004009 <tdat10>
    80002cb8:	00020283          	lb	t0,0(tp) # 0 <_start-0x80000000>
    80002cbc:	f9800393          	li	t2,-104
    80002cc0:	28729c63          	bne	t0,t2,80002f58 <fail>

0000000080002cc4 <test_12>:
    80002cc4:	00c00193          	li	gp,12
    80002cc8:	00000213          	li	tp,0
    80002ccc:	fdd00093          	li	ra,-35
    80002cd0:	00001117          	auipc	sp,0x1
    80002cd4:	33010113          	addi	sp,sp,816 # 80004000 <begin_signature>
    80002cd8:	00110023          	sb	ra,0(sp)
    80002cdc:	00010703          	lb	a4,0(sp)
    80002ce0:	fdd00393          	li	t2,-35
    80002ce4:	26771a63          	bne	a4,t2,80002f58 <fail>
    80002ce8:	00120213          	addi	tp,tp,1 # 1 <_start-0x7fffffff>
    80002cec:	00200293          	li	t0,2
    80002cf0:	fc521ee3          	bne	tp,t0,80002ccc <test_12+0x8>

0000000080002cf4 <test_13>:
    80002cf4:	00d00193          	li	gp,13
    80002cf8:	00000213          	li	tp,0
    80002cfc:	fcd00093          	li	ra,-51
    80002d00:	00001117          	auipc	sp,0x1
    80002d04:	30010113          	addi	sp,sp,768 # 80004000 <begin_signature>
    80002d08:	00000013          	nop
    80002d0c:	001100a3          	sb	ra,1(sp)
    80002d10:	00110703          	lb	a4,1(sp)
    80002d14:	fcd00393          	li	t2,-51
    80002d18:	24771063          	bne	a4,t2,80002f58 <fail>
    80002d1c:	00120213          	addi	tp,tp,1 # 1 <_start-0x7fffffff>
    80002d20:	00200293          	li	t0,2
    80002d24:	fc521ce3          	bne	tp,t0,80002cfc <test_13+0x8>

0000000080002d28 <test_14>:
    80002d28:	00e00193          	li	gp,14
    80002d2c:	00000213          	li	tp,0
    80002d30:	fcc00093          	li	ra,-52
    80002d34:	00001117          	auipc	sp,0x1
    80002d38:	2cc10113          	addi	sp,sp,716 # 80004000 <begin_signature>
    80002d3c:	00000013          	nop
    80002d40:	00000013          	nop
    80002d44:	00110123          	sb	ra,2(sp)
    80002d48:	00210703          	lb	a4,2(sp)
    80002d4c:	fcc00393          	li	t2,-52
    80002d50:	20771463          	bne	a4,t2,80002f58 <fail>
    80002d54:	00120213          	addi	tp,tp,1 # 1 <_start-0x7fffffff>
    80002d58:	00200293          	li	t0,2
    80002d5c:	fc521ae3          	bne	tp,t0,80002d30 <test_14+0x8>

0000000080002d60 <test_15>:
    80002d60:	00f00193          	li	gp,15
    80002d64:	00000213          	li	tp,0
    80002d68:	fbc00093          	li	ra,-68
    80002d6c:	00000013          	nop
    80002d70:	00001117          	auipc	sp,0x1
    80002d74:	29010113          	addi	sp,sp,656 # 80004000 <begin_signature>
    80002d78:	001101a3          	sb	ra,3(sp)
    80002d7c:	00310703          	lb	a4,3(sp)
    80002d80:	fbc00393          	li	t2,-68
    80002d84:	1c771a63          	bne	a4,t2,80002f58 <fail>
    80002d88:	00120213          	addi	tp,tp,1 # 1 <_start-0x7fffffff>
    80002d8c:	00200293          	li	t0,2
    80002d90:	fc521ce3          	bne	tp,t0,80002d68 <test_15+0x8>

0000000080002d94 <test_16>:
    80002d94:	01000193          	li	gp,16
    80002d98:	00000213          	li	tp,0
    80002d9c:	fbb00093          	li	ra,-69
    80002da0:	00000013          	nop
    80002da4:	00001117          	auipc	sp,0x1
    80002da8:	25c10113          	addi	sp,sp,604 # 80004000 <begin_signature>
    80002dac:	00000013          	nop
    80002db0:	00110223          	sb	ra,4(sp)
    80002db4:	00410703          	lb	a4,4(sp)
    80002db8:	fbb00393          	li	t2,-69
    80002dbc:	18771e63          	bne	a4,t2,80002f58 <fail>
    80002dc0:	00120213          	addi	tp,tp,1 # 1 <_start-0x7fffffff>
    80002dc4:	00200293          	li	t0,2
    80002dc8:	fc521ae3          	bne	tp,t0,80002d9c <test_16+0x8>

0000000080002dcc <test_17>:
    80002dcc:	01100193          	li	gp,17
    80002dd0:	00000213          	li	tp,0
    80002dd4:	fab00093          	li	ra,-85
    80002dd8:	00000013          	nop
    80002ddc:	00000013          	nop
    80002de0:	00001117          	auipc	sp,0x1
    80002de4:	22010113          	addi	sp,sp,544 # 80004000 <begin_signature>
    80002de8:	001102a3          	sb	ra,5(sp)
    80002dec:	00510703          	lb	a4,5(sp)
    80002df0:	fab00393          	li	t2,-85
    80002df4:	16771263          	bne	a4,t2,80002f58 <fail>
    80002df8:	00120213          	addi	tp,tp,1 # 1 <_start-0x7fffffff>
    80002dfc:	00200293          	li	t0,2
    80002e00:	fc521ae3          	bne	tp,t0,80002dd4 <test_17+0x8>

0000000080002e04 <test_18>:
    80002e04:	01200193          	li	gp,18
    80002e08:	00000213          	li	tp,0
    80002e0c:	00001117          	auipc	sp,0x1
    80002e10:	1f410113          	addi	sp,sp,500 # 80004000 <begin_signature>
    80002e14:	03300093          	li	ra,51
    80002e18:	00110023          	sb	ra,0(sp)
    80002e1c:	00010703          	lb	a4,0(sp)
    80002e20:	03300393          	li	t2,51
    80002e24:	12771a63          	bne	a4,t2,80002f58 <fail>
    80002e28:	00120213          	addi	tp,tp,1 # 1 <_start-0x7fffffff>
    80002e2c:	00200293          	li	t0,2
    80002e30:	fc521ee3          	bne	tp,t0,80002e0c <test_18+0x8>

0000000080002e34 <test_19>:
    80002e34:	01300193          	li	gp,19
    80002e38:	00000213          	li	tp,0
    80002e3c:	00001117          	auipc	sp,0x1
    80002e40:	1c410113          	addi	sp,sp,452 # 80004000 <begin_signature>
    80002e44:	02300093          	li	ra,35
    80002e48:	00000013          	nop
    80002e4c:	001100a3          	sb	ra,1(sp)
    80002e50:	00110703          	lb	a4,1(sp)
    80002e54:	02300393          	li	t2,35
    80002e58:	10771063          	bne	a4,t2,80002f58 <fail>
    80002e5c:	00120213          	addi	tp,tp,1 # 1 <_start-0x7fffffff>
    80002e60:	00200293          	li	t0,2
    80002e64:	fc521ce3          	bne	tp,t0,80002e3c <test_19+0x8>

0000000080002e68 <test_20>:
    80002e68:	01400193          	li	gp,20
    80002e6c:	00000213          	li	tp,0
    80002e70:	00001117          	auipc	sp,0x1
    80002e74:	19010113          	addi	sp,sp,400 # 80004000 <begin_signature>
    80002e78:	02200093          	li	ra,34
    80002e7c:	00000013          	nop
    80002e80:	00000013          	nop
    80002e84:	00110123          	sb	ra,2(sp)
    80002e88:	00210703          	lb	a4,2(sp)
    80002e8c:	02200393          	li	t2,34
    80002e90:	0c771463          	bne	a4,t2,80002f58 <fail>
    80002e94:	00120213          	addi	tp,tp,1 # 1 <_start-0x7fffffff>
    80002e98:	00200293          	li	t0,2
    80002e9c:	fc521ae3          	bne	tp,t0,80002e70 <test_20+0x8>

0000000080002ea0 <test_21>:
    80002ea0:	01500193          	li	gp,21
    80002ea4:	00000213          	li	tp,0
    80002ea8:	00001117          	auipc	sp,0x1
    80002eac:	15810113          	addi	sp,sp,344 # 80004000 <begin_signature>
    80002eb0:	00000013          	nop
    80002eb4:	01200093          	li	ra,18
    80002eb8:	001101a3          	sb	ra,3(sp)
    80002ebc:	00310703          	lb	a4,3(sp)
    80002ec0:	01200393          	li	t2,18
    80002ec4:	08771a63          	bne	a4,t2,80002f58 <fail>
    80002ec8:	00120213          	addi	tp,tp,1 # 1 <_start-0x7fffffff>
    80002ecc:	00200293          	li	t0,2
    80002ed0:	fc521ce3          	bne	tp,t0,80002ea8 <test_21+0x8>

0000000080002ed4 <test_22>:
    80002ed4:	01600193          	li	gp,22
    80002ed8:	00000213          	li	tp,0
    80002edc:	00001117          	auipc	sp,0x1
    80002ee0:	12410113          	addi	sp,sp,292 # 80004000 <begin_signature>
    80002ee4:	00000013          	nop
    80002ee8:	01100093          	li	ra,17
    80002eec:	00000013          	nop
    80002ef0:	00110223          	sb	ra,4(sp)
    80002ef4:	00410703          	lb	a4,4(sp)
    80002ef8:	01100393          	li	t2,17
    80002efc:	04771e63          	bne	a4,t2,80002f58 <fail>
    80002f00:	00120213          	addi	tp,tp,1 # 1 <_start-0x7fffffff>
    80002f04:	00200293          	li	t0,2
    80002f08:	fc521ae3          	bne	tp,t0,80002edc <test_22+0x8>

0000000080002f0c <test_23>:
    80002f0c:	01700193          	li	gp,23
    80002f10:	00000213          	li	tp,0
    80002f14:	00001117          	auipc	sp,0x1
    80002f18:	0ec10113          	addi	sp,sp,236 # 80004000 <begin_signature>
    80002f1c:	00000013          	nop
    80002f20:	00000013          	nop
    80002f24:	00100093          	li	ra,1
    80002f28:	001102a3          	sb	ra,5(sp)
    80002f2c:	00510703          	lb	a4,5(sp)
    80002f30:	00100393          	li	t2,1
    80002f34:	02771263          	bne	a4,t2,80002f58 <fail>
    80002f38:	00120213          	addi	tp,tp,1 # 1 <_start-0x7fffffff>
    80002f3c:	00200293          	li	t0,2
    80002f40:	fc521ae3          	bne	tp,t0,80002f14 <test_23+0x8>
    80002f44:	0ef00513          	li	a0,239
    80002f48:	00001597          	auipc	a1,0x1
    80002f4c:	0b858593          	addi	a1,a1,184 # 80004000 <begin_signature>
    80002f50:	00a581a3          	sb	a0,3(a1)
    80002f54:	00301a63          	bne	zero,gp,80002f68 <pass>

0000000080002f58 <fail>:
    80002f58:	00119513          	slli	a0,gp,0x1
    80002f5c:	00050063          	beqz	a0,80002f5c <fail+0x4>
    80002f60:	00156513          	ori	a0,a0,1
    80002f64:	00000073          	ecall

0000000080002f68 <pass>:
    80002f68:	00100513          	li	a0,1
    80002f6c:	00000073          	ecall
    80002f70:	c0001073          	unimp
