
build/elf/rv64si-p-dirty：     文件格式 elf64-littleriscv


Disassembly of section .text.init:

0000000080000000 <_start>:
    80000000:	0540006f          	j	80000054 <reset_vector>

0000000080000004 <trap_vector>:
    80000004:	34202f73          	csrr	t5,mcause
    80000008:	00800f93          	li	t6,8
    8000000c:	03ff0a63          	beq	t5,t6,80000040 <write_tohost>
    80000010:	00900f93          	li	t6,9
    80000014:	03ff0663          	beq	t5,t6,80000040 <write_tohost>
    80000018:	00b00f93          	li	t6,11
    8000001c:	03ff0263          	beq	t5,t6,80000040 <write_tohost>
    80000020:	00000f17          	auipc	t5,0x0
    80000024:	270f0f13          	addi	t5,t5,624 # 80000290 <mtvec_handler>
    80000028:	000f0463          	beqz	t5,80000030 <trap_vector+0x2c>
    8000002c:	000f0067          	jr	t5
    80000030:	34202f73          	csrr	t5,mcause
    80000034:	000f5463          	bgez	t5,8000003c <handle_exception>
    80000038:	0040006f          	j	8000003c <handle_exception>

000000008000003c <handle_exception>:
    8000003c:	5391e193          	ori	gp,gp,1337

0000000080000040 <write_tohost>:
    80000040:	00001f17          	auipc	t5,0x1
    80000044:	fc3f2023          	sw	gp,-64(t5) # 80001000 <tohost>
    80000048:	00001f17          	auipc	t5,0x1
    8000004c:	fa0f2e23          	sw	zero,-68(t5) # 80001004 <tohost+0x4>
    80000050:	ff1ff06f          	j	80000040 <write_tohost>

0000000080000054 <reset_vector>:
    80000054:	00000093          	li	ra,0
    80000058:	00000113          	li	sp,0
    8000005c:	00000193          	li	gp,0
    80000060:	00000213          	li	tp,0
    80000064:	00000293          	li	t0,0
    80000068:	00000313          	li	t1,0
    8000006c:	00000393          	li	t2,0
    80000070:	00000413          	li	s0,0
    80000074:	00000493          	li	s1,0
    80000078:	00000513          	li	a0,0
    8000007c:	00000593          	li	a1,0
    80000080:	00000613          	li	a2,0
    80000084:	00000693          	li	a3,0
    80000088:	00000713          	li	a4,0
    8000008c:	00000793          	li	a5,0
    80000090:	00000813          	li	a6,0
    80000094:	00000893          	li	a7,0
    80000098:	00000913          	li	s2,0
    8000009c:	00000993          	li	s3,0
    800000a0:	00000a13          	li	s4,0
    800000a4:	00000a93          	li	s5,0
    800000a8:	00000b13          	li	s6,0
    800000ac:	00000b93          	li	s7,0
    800000b0:	00000c13          	li	s8,0
    800000b4:	00000c93          	li	s9,0
    800000b8:	00000d13          	li	s10,0
    800000bc:	00000d93          	li	s11,0
    800000c0:	00000e13          	li	t3,0
    800000c4:	00000e93          	li	t4,0
    800000c8:	00000f13          	li	t5,0
    800000cc:	00000f93          	li	t6,0
    800000d0:	f1402573          	csrr	a0,mhartid
    800000d4:	00051063          	bnez	a0,800000d4 <reset_vector+0x80>
    800000d8:	00000297          	auipc	t0,0x0
    800000dc:	01028293          	addi	t0,t0,16 # 800000e8 <reset_vector+0x94>
    800000e0:	30529073          	csrw	mtvec,t0
    800000e4:	18005073          	csrwi	satp,0
    800000e8:	00000297          	auipc	t0,0x0
    800000ec:	02428293          	addi	t0,t0,36 # 8000010c <reset_vector+0xb8>
    800000f0:	30529073          	csrw	mtvec,t0
    800000f4:	0010029b          	addiw	t0,zero,1
    800000f8:	03529293          	slli	t0,t0,0x35
    800000fc:	fff28293          	addi	t0,t0,-1
    80000100:	3b029073          	csrw	pmpaddr0,t0
    80000104:	01f00293          	li	t0,31
    80000108:	3a029073          	csrw	pmpcfg0,t0
    8000010c:	30405073          	csrwi	mie,0
    80000110:	00000297          	auipc	t0,0x0
    80000114:	01428293          	addi	t0,t0,20 # 80000124 <reset_vector+0xd0>
    80000118:	30529073          	csrw	mtvec,t0
    8000011c:	30205073          	csrwi	medeleg,0
    80000120:	30305073          	csrwi	mideleg,0
    80000124:	00000193          	li	gp,0
    80000128:	00000297          	auipc	t0,0x0
    8000012c:	edc28293          	addi	t0,t0,-292 # 80000004 <trap_vector>
    80000130:	30529073          	csrw	mtvec,t0
    80000134:	00100513          	li	a0,1
    80000138:	01f51513          	slli	a0,a0,0x1f
    8000013c:	00055c63          	bgez	a0,80000154 <reset_vector+0x100>
    80000140:	0ff0000f          	fence
    80000144:	00100193          	li	gp,1
    80000148:	05d00893          	li	a7,93
    8000014c:	00000513          	li	a0,0
    80000150:	00000073          	ecall
    80000154:	00000293          	li	t0,0
    80000158:	00028a63          	beqz	t0,8000016c <reset_vector+0x118>
    8000015c:	10529073          	csrw	stvec,t0
    80000160:	0000b2b7          	lui	t0,0xb
    80000164:	1092829b          	addiw	t0,t0,265 # b109 <_start-0x7fff4ef7>
    80000168:	30229073          	csrw	medeleg,t0
    8000016c:	30005073          	csrwi	mstatus,0
    80000170:	00002537          	lui	a0,0x2
    80000174:	8005051b          	addiw	a0,a0,-2048 # 1800 <_start-0x7fffe800>
    80000178:	30052073          	csrs	mstatus,a0
    8000017c:	00000297          	auipc	t0,0x0
    80000180:	01428293          	addi	t0,t0,20 # 80000190 <reset_vector+0x13c>
    80000184:	34129073          	csrw	mepc,t0
    80000188:	f1402573          	csrr	a0,mhartid
    8000018c:	30200073          	mret
    80000190:	fff0051b          	addiw	a0,zero,-1
    80000194:	03f51513          	slli	a0,a0,0x3f
    80000198:	00002597          	auipc	a1,0x2
    8000019c:	e6858593          	addi	a1,a1,-408 # 80002000 <begin_signature>
    800001a0:	00c5d593          	srli	a1,a1,0xc
    800001a4:	00a5e5b3          	or	a1,a1,a0
    800001a8:	18059073          	csrw	satp,a1
    800001ac:	12000073          	sfence.vma
    800001b0:	000215b7          	lui	a1,0x21
    800001b4:	8005859b          	addiw	a1,a1,-2048 # 20800 <_start-0x7ffdf800>
    800001b8:	3005a073          	csrs	mstatus,a1
    800001bc:	00200193          	li	gp,2
    800001c0:	00100393          	li	t2,1
    800001c4:	80002517          	auipc	a0,0x80002
    800001c8:	e4752223          	sw	t2,-444(a0) # 2008 <_start-0x7fffdff8>
    800001cc:	00300193          	li	gp,3
    800001d0:	000415b7          	lui	a1,0x41
    800001d4:	8005859b          	addiw	a1,a1,-2048 # 40800 <_start-0x7ffbf800>
    800001d8:	3005a073          	csrs	mstatus,a1
    800001dc:	80002297          	auipc	t0,0x80002
    800001e0:	e2c2a283          	lw	t0,-468(t0) # 2008 <_start-0x7fffdff8>
    800001e4:	10029c63          	bnez	t0,800002fc <die>
    800001e8:	80002517          	auipc	a0,0x80002
    800001ec:	e2752023          	sw	t2,-480(a0) # 2008 <_start-0x7fffdff8>
    800001f0:	80002297          	auipc	t0,0x80002
    800001f4:	e182a283          	lw	t0,-488(t0) # 2008 <_start-0x7fffdff8>
    800001f8:	10729263          	bne	t0,t2,800002fc <die>
    800001fc:	000202b7          	lui	t0,0x20
    80000200:	3002b073          	csrc	mstatus,t0
    80000204:	00002297          	auipc	t0,0x2
    80000208:	dfc2a283          	lw	t0,-516(t0) # 80002000 <begin_signature>
    8000020c:	0c000513          	li	a0,192
    80000210:	00a2f2b3          	and	t0,t0,a0
    80000214:	0ea29463          	bne	t0,a0,800002fc <die>
    80000218:	000202b7          	lui	t0,0x20
    8000021c:	3002a073          	csrs	mstatus,t0
    80000220:	00400193          	li	gp,4
    80000224:	80002517          	auipc	a0,0x80002
    80000228:	ddc52503          	lw	a0,-548(a0) # 2000 <_start-0x7fffe000>
    8000022c:	40056513          	ori	a0,a0,1024
    80000230:	80002297          	auipc	t0,0x80002
    80000234:	dca2a823          	sw	a0,-560(t0) # 2000 <_start-0x7fffe000>
    80000238:	12000073          	sfence.vma
    8000023c:	80002297          	auipc	t0,0x80002
    80000240:	dca2a223          	sw	a0,-572(t0) # 2000 <_start-0x7fffe000>
    80000244:	0b80006f          	j	800002fc <die>
    80000248:	0ff0000f          	fence
    8000024c:	00100193          	li	gp,1
    80000250:	05d00893          	li	a7,93
    80000254:	00000513          	li	a0,0
    80000258:	00000073          	ecall
    8000025c:	02301063          	bne	zero,gp,8000027c <pass>

0000000080000260 <fail>:
    80000260:	0ff0000f          	fence
    80000264:	00018063          	beqz	gp,80000264 <fail+0x4>
    80000268:	00119193          	slli	gp,gp,0x1
    8000026c:	0011e193          	ori	gp,gp,1
    80000270:	05d00893          	li	a7,93
    80000274:	00018513          	mv	a0,gp
    80000278:	00000073          	ecall

000000008000027c <pass>:
    8000027c:	0ff0000f          	fence
    80000280:	00100193          	li	gp,1
    80000284:	05d00893          	li	a7,93
    80000288:	00000513          	li	a0,0
    8000028c:	00000073          	ecall

0000000080000290 <mtvec_handler>:
    80000290:	342022f3          	csrr	t0,mcause
    80000294:	ff128293          	addi	t0,t0,-15
    80000298:	06029263          	bnez	t0,800002fc <die>
    8000029c:	00200313          	li	t1,2
    800002a0:	02619263          	bne	gp,t1,800002c4 <skip+0x10>
    800002a4:	00002297          	auipc	t0,0x2
    800002a8:	d5c2a283          	lw	t0,-676(t0) # 80002000 <begin_signature>
    800002ac:	0802f313          	andi	t1,t0,128
    800002b0:	04031663          	bnez	t1,800002fc <die>

00000000800002b4 <skip>:
    800002b4:	341022f3          	csrr	t0,mepc
    800002b8:	00428293          	addi	t0,t0,4
    800002bc:	34129073          	csrw	mepc,t0
    800002c0:	30200073          	mret
    800002c4:	00300313          	li	t1,3
    800002c8:	02619463          	bne	gp,t1,800002f0 <skip+0x3c>
    800002cc:	00002297          	auipc	t0,0x2
    800002d0:	d342a283          	lw	t0,-716(t0) # 80002000 <begin_signature>
    800002d4:	0802f313          	andi	t1,t0,128
    800002d8:	02031263          	bnez	t1,800002fc <die>
    800002dc:	0802e293          	ori	t0,t0,128
    800002e0:	00002317          	auipc	t1,0x2
    800002e4:	d2532023          	sw	t0,-736(t1) # 80002000 <begin_signature>
    800002e8:	12000073          	sfence.vma
    800002ec:	30200073          	mret
    800002f0:	00400313          	li	t1,4
    800002f4:	00619463          	bne	gp,t1,800002fc <die>
    800002f8:	f85ff06f          	j	8000027c <pass>

00000000800002fc <die>:
    800002fc:	0ff0000f          	fence
    80000300:	00018063          	beqz	gp,80000300 <die+0x4>
    80000304:	00119193          	slli	gp,gp,0x1
    80000308:	0011e193          	ori	gp,gp,1
    8000030c:	05d00893          	li	a7,93
    80000310:	00018513          	mv	a0,gp
    80000314:	00000073          	ecall
    80000318:	c0001073          	unimp
    8000031c:	0000                	.2byte	0x0
    8000031e:	0000                	.2byte	0x0
    80000320:	0000                	.2byte	0x0
    80000322:	0000                	.2byte	0x0
    80000324:	0000                	.2byte	0x0
    80000326:	0000                	.2byte	0x0
    80000328:	0000                	.2byte	0x0
    8000032a:	0000                	.2byte	0x0
    8000032c:	0000                	.2byte	0x0
    8000032e:	0000                	.2byte	0x0
    80000330:	0000                	.2byte	0x0
    80000332:	0000                	.2byte	0x0
    80000334:	0000                	.2byte	0x0
    80000336:	0000                	.2byte	0x0
    80000338:	0000                	.2byte	0x0
    8000033a:	0000                	.2byte	0x0
    8000033c:	0000                	.2byte	0x0
    8000033e:	0000                	.2byte	0x0
